ARM GAS  C:\Users\NICKBU~1\AppData\Local\Temp\cc0b52tk.s 			page 1


   1              		.syntax unified
   2              		.cpu cortex-m3
   3              		.fpu softvfp
   4              		.eabi_attribute 20, 1
   5              		.eabi_attribute 21, 1
   6              		.eabi_attribute 23, 3
   7              		.eabi_attribute 24, 1
   8              		.eabi_attribute 25, 1
   9              		.eabi_attribute 26, 1
  10              		.eabi_attribute 30, 1
  11              		.eabi_attribute 34, 1
  12              		.eabi_attribute 18, 4
  13              		.thumb
  14              		.file	"main.c"
  15              		.text
  16              	.Ltext0:
  17              		.cfi_sections	.debug_frame
  18              		.section	.text.buttonISR,"ax",%progbits
  19              		.align	2
  20              		.global	buttonISR
  21              		.thumb
  22              		.thumb_func
  23              		.type	buttonISR, %function
  24              	buttonISR:
  25              	.LFB66:
  26              		.file 1 "main.c"
   1:main.c        **** /* ========================================
   2:main.c        ****  *
   3:main.c        ****  * Copyright YOUR COMPANY, THE YEAR
   4:main.c        ****  * All Rights Reserved
   5:main.c        ****  * UNPUBLISHED, LICENSED SOFTWARE.
   6:main.c        ****  *
   7:main.c        ****  * CONFIDENTIAL AND PROPRIETARY INFORMATION
   8:main.c        ****  * WHICH IS THE PROPERTY OF your company.
   9:main.c        ****  *
  10:main.c        ****  * ========================================
  11:main.c        **** */
  12:main.c        **** #include <project.h>
  13:main.c        **** 
  14:main.c        **** #define PWM_CLOCK 48000000
  15:main.c        **** //#define STARTING_FREQ 267000
  16:main.c        **** //#define STARTING_FREQ 100000
  17:main.c        **** #define STARTING_FREQ 59000
  18:main.c        **** #define ELEMENTS(x)    (sizeof(x) / sizeof(x[0]))
  19:main.c        **** 
  20:main.c        **** uint8_t buttonPressed = 0;
  21:main.c        **** uint32_t currentFrequency = STARTING_FREQ;
  22:main.c        **** 
  23:main.c        **** uint32_t freqTableIndex = 0;
  24:main.c        **** uint32_t freqTable[] = 
  25:main.c        **** {
  26:main.c        ****     50000,
  27:main.c        ****     55000,
  28:main.c        ****     70000,
  29:main.c        ****     89000,
  30:main.c        ****     100000,
  31:main.c        ****     150000,
ARM GAS  C:\Users\NICKBU~1\AppData\Local\Temp\cc0b52tk.s 			page 2


  32:main.c        ****     200000,
  33:main.c        ****     300000,
  34:main.c        ****     500000
  35:main.c        **** };
  36:main.c        **** 
  37:main.c        **** void setFrequency(uint32_t freq)
  38:main.c        **** {
  39:main.c        ****     uint16_t period = PWM_CLOCK / freq;
  40:main.c        **** 
  41:main.c        ****     PWM_WritePeriod(period);
  42:main.c        ****     PWM_WriteCompare1(period/2);
  43:main.c        **** 
  44:main.c        **** }
  45:main.c        **** 
  46:main.c        **** uint32_t stepFrequencyTable()
  47:main.c        **** {
  48:main.c        ****     uint32_t currentFrequency = freqTable[freqTableIndex++];
  49:main.c        ****     if (freqTableIndex > sizeof(freqTable)/sizeof(freqTable[0]))
  50:main.c        ****     {
  51:main.c        ****         freqTableIndex = 0;
  52:main.c        ****     }
  53:main.c        ****     return currentFrequency;
  54:main.c        **** }
  55:main.c        **** 
  56:main.c        **** uint32_t stepFrequency()
  57:main.c        **** {
  58:main.c        ****     if (currentFrequency < 100)
  59:main.c        ****     {
  60:main.c        ****         currentFrequency += 5;
  61:main.c        ****     }
  62:main.c        ****     else if (currentFrequency < 1000)
  63:main.c        ****     {
  64:main.c        ****         currentFrequency += 10;
  65:main.c        ****     }
  66:main.c        ****     else if (currentFrequency < 10000)
  67:main.c        ****     {
  68:main.c        ****         currentFrequency += 100;
  69:main.c        ****     }
  70:main.c        ****     else if (currentFrequency < 100000)
  71:main.c        ****     {
  72:main.c        ****         currentFrequency += 100;
  73:main.c        ****     }
  74:main.c        ****     else if (currentFrequency < 1000000)
  75:main.c        ****     {
  76:main.c        ****         currentFrequency += 1000;
  77:main.c        ****     }
  78:main.c        ****     else if (currentFrequency < 10000000)
  79:main.c        ****     {
  80:main.c        ****         currentFrequency += 10000;
  81:main.c        ****     }
  82:main.c        ****     return currentFrequency;
  83:main.c        **** }
  84:main.c        **** 
  85:main.c        **** CY_ISR(buttonISR)
  86:main.c        **** {
  27              		.loc 1 86 0
  28              		.cfi_startproc
ARM GAS  C:\Users\NICKBU~1\AppData\Local\Temp\cc0b52tk.s 			page 3


  29              		@ args = 0, pretend = 0, frame = 0
  30              		@ frame_needed = 0, uses_anonymous_args = 0
  31              		@ link register save eliminated.
  87:main.c        ****     buttonPressed = 1;
  32              		.loc 1 87 0
  33 0000 0122     		movs	r2, #1
  34 0002 014B     		ldr	r3, .L2
  35 0004 1A70     		strb	r2, [r3]
  36 0006 7047     		bx	lr
  37              	.L3:
  38              		.align	2
  39              	.L2:
  40 0008 00000000 		.word	.LANCHOR0
  41              		.cfi_endproc
  42              	.LFE66:
  43              		.size	buttonISR, .-buttonISR
  44              		.section	.text.setFrequency,"ax",%progbits
  45              		.align	2
  46              		.global	setFrequency
  47              		.thumb
  48              		.thumb_func
  49              		.type	setFrequency, %function
  50              	setFrequency:
  51              	.LFB63:
  38:main.c        ****     uint16_t period = PWM_CLOCK / freq;
  52              		.loc 1 38 0
  53              		.cfi_startproc
  54              		@ args = 0, pretend = 0, frame = 0
  55              		@ frame_needed = 0, uses_anonymous_args = 0
  56              	.LVL0:
  57 0000 10B5     		push	{r4, lr}
  58              		.cfi_def_cfa_offset 8
  59              		.cfi_offset 4, -8
  60              		.cfi_offset 14, -4
  39:main.c        **** 
  61              		.loc 1 39 0
  62 0002 054C     		ldr	r4, .L6
  63 0004 B4FBF0F0 		udiv	r0, r4, r0
  64              	.LVL1:
  65 0008 84B2     		uxth	r4, r0
  66              	.LVL2:
  41:main.c        ****     PWM_WriteCompare1(period/2);
  67              		.loc 1 41 0
  68 000a 2046     		mov	r0, r4
  69 000c FFF7FEFF 		bl	PWM_WritePeriod
  70              	.LVL3:
  42:main.c        **** 
  71              		.loc 1 42 0
  72 0010 6008     		lsrs	r0, r4, #1
  73 0012 FFF7FEFF 		bl	PWM_WriteCompare1
  74              	.LVL4:
  75 0016 10BD     		pop	{r4, pc}
  76              	.LVL5:
  77              	.L7:
  78              		.align	2
  79              	.L6:
  80 0018 006CDC02 		.word	48000000
ARM GAS  C:\Users\NICKBU~1\AppData\Local\Temp\cc0b52tk.s 			page 4


  81              		.cfi_endproc
  82              	.LFE63:
  83              		.size	setFrequency, .-setFrequency
  84              		.section	.text.stepFrequencyTable,"ax",%progbits
  85              		.align	2
  86              		.global	stepFrequencyTable
  87              		.thumb
  88              		.thumb_func
  89              		.type	stepFrequencyTable, %function
  90              	stepFrequencyTable:
  91              	.LFB64:
  47:main.c        ****     uint32_t currentFrequency = freqTable[freqTableIndex++];
  92              		.loc 1 47 0
  93              		.cfi_startproc
  94              		@ args = 0, pretend = 0, frame = 0
  95              		@ frame_needed = 0, uses_anonymous_args = 0
  96              		@ link register save eliminated.
  48:main.c        ****     if (freqTableIndex > sizeof(freqTable)/sizeof(freqTable[0]))
  97              		.loc 1 48 0
  98 0000 0649     		ldr	r1, .L10
  99 0002 4A68     		ldr	r2, [r1, #4]
 100 0004 531C     		adds	r3, r2, #1
 101 0006 4B60     		str	r3, [r1, #4]
 102 0008 0549     		ldr	r1, .L10+4
 103 000a 51F82200 		ldr	r0, [r1, r2, lsl #2]
 104              	.LVL6:
  49:main.c        ****     {
 105              		.loc 1 49 0
 106 000e 092B     		cmp	r3, #9
 107 0010 02D9     		bls	.L9
  51:main.c        ****     }
 108              		.loc 1 51 0
 109 0012 0022     		movs	r2, #0
 110 0014 014B     		ldr	r3, .L10
 111 0016 5A60     		str	r2, [r3, #4]
 112              	.L9:
  54:main.c        **** 
 113              		.loc 1 54 0
 114 0018 7047     		bx	lr
 115              	.L11:
 116 001a 00BF     		.align	2
 117              	.L10:
 118 001c 00000000 		.word	.LANCHOR0
 119 0020 00000000 		.word	.LANCHOR1
 120              		.cfi_endproc
 121              	.LFE64:
 122              		.size	stepFrequencyTable, .-stepFrequencyTable
 123              		.section	.text.stepFrequency,"ax",%progbits
 124              		.align	2
 125              		.global	stepFrequency
 126              		.thumb
 127              		.thumb_func
 128              		.type	stepFrequency, %function
 129              	stepFrequency:
 130              	.LFB65:
  57:main.c        ****     if (currentFrequency < 100)
 131              		.loc 1 57 0
ARM GAS  C:\Users\NICKBU~1\AppData\Local\Temp\cc0b52tk.s 			page 5


 132              		.cfi_startproc
 133              		@ args = 0, pretend = 0, frame = 0
 134              		@ frame_needed = 0, uses_anonymous_args = 0
 135              		@ link register save eliminated.
  58:main.c        ****     {
 136              		.loc 1 58 0
 137 0000 184B     		ldr	r3, .L19
 138 0002 5B6A     		ldr	r3, [r3, #36]
 139 0004 632B     		cmp	r3, #99
 140 0006 03D8     		bhi	.L13
  60:main.c        ****     }
 141              		.loc 1 60 0
 142 0008 0533     		adds	r3, r3, #5
 143 000a 164A     		ldr	r2, .L19
 144 000c 5362     		str	r3, [r2, #36]
 145 000e 25E0     		b	.L14
 146              	.L13:
  62:main.c        ****     {
 147              		.loc 1 62 0
 148 0010 B3F57A7F 		cmp	r3, #1000
 149 0014 03D2     		bcs	.L15
  64:main.c        ****     }
 150              		.loc 1 64 0
 151 0016 0A33     		adds	r3, r3, #10
 152 0018 124A     		ldr	r2, .L19
 153 001a 5362     		str	r3, [r2, #36]
 154 001c 1EE0     		b	.L14
 155              	.L15:
  66:main.c        ****     {
 156              		.loc 1 66 0
 157 001e 42F20F72 		movw	r2, #9999
 158 0022 9342     		cmp	r3, r2
 159 0024 03D8     		bhi	.L16
  68:main.c        ****     }
 160              		.loc 1 68 0
 161 0026 6433     		adds	r3, r3, #100
 162 0028 0E4A     		ldr	r2, .L19
 163 002a 5362     		str	r3, [r2, #36]
 164 002c 16E0     		b	.L14
 165              	.L16:
  70:main.c        ****     {
 166              		.loc 1 70 0
 167 002e 0E4A     		ldr	r2, .L19+4
 168 0030 9342     		cmp	r3, r2
 169 0032 03D8     		bhi	.L17
  72:main.c        ****     }
 170              		.loc 1 72 0
 171 0034 6433     		adds	r3, r3, #100
 172 0036 0B4A     		ldr	r2, .L19
 173 0038 5362     		str	r3, [r2, #36]
 174 003a 0FE0     		b	.L14
 175              	.L17:
  74:main.c        ****     {
 176              		.loc 1 74 0
 177 003c 0B4A     		ldr	r2, .L19+8
 178 003e 9342     		cmp	r3, r2
 179 0040 04D8     		bhi	.L18
ARM GAS  C:\Users\NICKBU~1\AppData\Local\Temp\cc0b52tk.s 			page 6


  76:main.c        ****     }
 180              		.loc 1 76 0
 181 0042 03F57A73 		add	r3, r3, #1000
 182 0046 074A     		ldr	r2, .L19
 183 0048 5362     		str	r3, [r2, #36]
 184 004a 07E0     		b	.L14
 185              	.L18:
  78:main.c        ****     {
 186              		.loc 1 78 0
 187 004c 084A     		ldr	r2, .L19+12
 188 004e 9342     		cmp	r3, r2
 189 0050 04D8     		bhi	.L14
  80:main.c        ****     }
 190              		.loc 1 80 0
 191 0052 03F51C53 		add	r3, r3, #9984
 192 0056 1033     		adds	r3, r3, #16
 193 0058 024A     		ldr	r2, .L19
 194 005a 5362     		str	r3, [r2, #36]
 195              	.L14:
  83:main.c        **** 
 196              		.loc 1 83 0
 197 005c 014B     		ldr	r3, .L19
 198 005e 586A     		ldr	r0, [r3, #36]
 199 0060 7047     		bx	lr
 200              	.L20:
 201 0062 00BF     		.align	2
 202              	.L19:
 203 0064 00000000 		.word	.LANCHOR1
 204 0068 9F860100 		.word	99999
 205 006c 3F420F00 		.word	999999
 206 0070 7F969800 		.word	9999999
 207              		.cfi_endproc
 208              	.LFE65:
 209              		.size	stepFrequency, .-stepFrequency
 210              		.section	.text.main,"ax",%progbits
 211              		.align	2
 212              		.global	main
 213              		.thumb
 214              		.thumb_func
 215              		.type	main, %function
 216              	main:
 217              	.LFB67:
  88:main.c        **** }
  89:main.c        **** 
  90:main.c        **** int main()
  91:main.c        **** {    
 218              		.loc 1 91 0
 219              		.cfi_startproc
 220              		@ args = 0, pretend = 0, frame = 0
 221              		@ frame_needed = 0, uses_anonymous_args = 0
 222 0000 08B5     		push	{r3, lr}
 223              		.cfi_def_cfa_offset 8
 224              		.cfi_offset 3, -8
 225              		.cfi_offset 14, -4
 226              	.LVL7:
  92:main.c        ****     uint8_t autoSweep = 0;
  93:main.c        ****     CyGlobalIntEnable; /* Enable global interrupts. */
ARM GAS  C:\Users\NICKBU~1\AppData\Local\Temp\cc0b52tk.s 			page 7


 227              		.loc 1 93 0
 228              	@ 93 "main.c" 1
 229 0002 62B6     		CPSIE   i
 230              	@ 0 "" 2
  94:main.c        **** 
  95:main.c        ****     /* Place your initialization/startup code here (e.g. MyInst_Start()) */
  96:main.c        ****     PWM_Start();
 231              		.loc 1 96 0
 232              		.thumb
 233 0004 FFF7FEFF 		bl	PWM_Start
 234              	.LVL8:
  97:main.c        ****     isr_button_StartEx(buttonISR);
 235              		.loc 1 97 0
 236 0008 0448     		ldr	r0, .L26
 237 000a FFF7FEFF 		bl	isr_button_StartEx
 238              	.LVL9:
  98:main.c        ****     
  99:main.c        ****     if (BUTTON_Read() == 0)
 239              		.loc 1 99 0
 240 000e FFF7FEFF 		bl	BUTTON_Read
 241              	.LVL10:
 100:main.c        ****     {
 101:main.c        ****         // The button was depressed on power up, perform an automatic sweep
 102:main.c        ****         autoSweep = 1;
 103:main.c        ****         currentFrequency = STARTING_FREQ;
 104:main.c        ****     }
 105:main.c        ****     else
 106:main.c        ****     {
 107:main.c        ****         currentFrequency = STARTING_FREQ;
 108:main.c        ****     }
 109:main.c        ****     
 110:main.c        ****     //setFrequency(currentFrequency);
 111:main.c        ****     buttonPressed = 0;
 242              		.loc 1 111 0
 243 0012 0022     		movs	r2, #0
 244 0014 024B     		ldr	r3, .L26+4
 245 0016 1A70     		strb	r2, [r3]
 246              	.L24:
 112:main.c        ****     
 113:main.c        ****     for(;;)
 114:main.c        ****     {
 115:main.c        ****         /* Place your application code here. */
 116:main.c        **** //        if (autoSweep || buttonPressed)
 117:main.c        **** //        {            
 118:main.c        **** //            buttonPressed = 0;
 119:main.c        **** //            Pin_LED_Write(!Pin_LED_Read());
 120:main.c        **** //            setFrequency(stepFrequency());
 121:main.c        **** //        }
 122:main.c        **** //
 123:main.c        **** //        if (autoSweep)
 124:main.c        **** //        {
 125:main.c        **** //            CyDelay(100);
 126:main.c        **** //        }
 127:main.c        ****         
 128:main.c        **** #if 0
 129:main.c        ****         setFrequency(stepFreq[currentFreqIndex++]);   
 130:main.c        ****         if (currentFreqIndex >= ELEMENTS(stepFreq))
ARM GAS  C:\Users\NICKBU~1\AppData\Local\Temp\cc0b52tk.s 			page 8


 131:main.c        ****         {
 132:main.c        ****             currentFreqIndex = 0;
 133:main.c        ****         }
 134:main.c        **** #endif
 135:main.c        ****     }
 247              		.loc 1 135 0 discriminator 1
 248 0018 FEE7     		b	.L24
 249              	.L27:
 250 001a 00BF     		.align	2
 251              	.L26:
 252 001c 00000000 		.word	buttonISR
 253 0020 00000000 		.word	.LANCHOR0
 254              		.cfi_endproc
 255              	.LFE67:
 256              		.size	main, .-main
 257              		.global	freqTable
 258              		.global	freqTableIndex
 259              		.global	currentFrequency
 260              		.global	buttonPressed
 261              		.data
 262              		.align	2
 263              		.set	.LANCHOR1,. + 0
 264              		.type	freqTable, %object
 265              		.size	freqTable, 36
 266              	freqTable:
 267 0000 50C30000 		.word	50000
 268 0004 D8D60000 		.word	55000
 269 0008 70110100 		.word	70000
 270 000c A85B0100 		.word	89000
 271 0010 A0860100 		.word	100000
 272 0014 F0490200 		.word	150000
 273 0018 400D0300 		.word	200000
 274 001c E0930400 		.word	300000
 275 0020 20A10700 		.word	500000
 276              		.type	currentFrequency, %object
 277              		.size	currentFrequency, 4
 278              	currentFrequency:
 279 0024 78E60000 		.word	59000
 280              		.bss
 281              		.align	2
 282              		.set	.LANCHOR0,. + 0
 283              		.type	buttonPressed, %object
 284              		.size	buttonPressed, 1
 285              	buttonPressed:
 286 0000 00       		.space	1
 287 0001 000000   		.space	3
 288              		.type	freqTableIndex, %object
 289              		.size	freqTableIndex, 4
 290              	freqTableIndex:
 291 0004 00000000 		.space	4
 292              		.text
 293              	.Letext0:
 294              		.file 2 "c:\\program files (x86)\\cypress\\psoc creator\\4.0\\psoc creator\\import\\gnu\\arm\\4.9.
 295              		.file 3 "c:\\program files (x86)\\cypress\\psoc creator\\4.0\\psoc creator\\import\\gnu\\arm\\4.9.
 296              		.file 4 "Generated_Source\\PSoC5/cytypes.h"
 297              		.file 5 "Generated_Source\\PSoC5/core_cm3.h"
 298              		.file 6 "Generated_Source\\PSoC5/PWM.h"
ARM GAS  C:\Users\NICKBU~1\AppData\Local\Temp\cc0b52tk.s 			page 9


 299              		.file 7 "Generated_Source\\PSoC5/isr_button.h"
 300              		.file 8 "Generated_Source\\PSoC5/BUTTON.h"