ARM GAS  C:\Users\NICKBU~1\AppData\Local\Temp\ccgaX3fy.s 			page 1


   1              		.syntax unified
   2              		.cpu cortex-m3
   3              		.fpu softvfp
   4              		.eabi_attribute 20, 1
   5              		.eabi_attribute 21, 1
   6              		.eabi_attribute 23, 3
   7              		.eabi_attribute 24, 1
   8              		.eabi_attribute 25, 1
   9              		.eabi_attribute 26, 1
  10              		.eabi_attribute 30, 1
  11              		.eabi_attribute 34, 1
  12              		.eabi_attribute 18, 4
  13              		.thumb
  14              		.file	"PWM.c"
  15              		.text
  16              	.Ltext0:
  17              		.cfi_sections	.debug_frame
  18              		.section	.text.PWM_Enable,"ax",%progbits
  19              		.align	2
  20              		.global	PWM_Enable
  21              		.thumb
  22              		.thumb_func
  23              		.type	PWM_Enable, %function
  24              	PWM_Enable:
  25              	.LFB2:
  26              		.file 1 "Generated_Source\\PSoC5\\PWM.c"
   1:Generated_Source\PSoC5/PWM.c **** /*******************************************************************************
   2:Generated_Source\PSoC5/PWM.c **** * File Name: PWM.c
   3:Generated_Source\PSoC5/PWM.c **** * Version 3.30
   4:Generated_Source\PSoC5/PWM.c **** *
   5:Generated_Source\PSoC5/PWM.c **** * Description:
   6:Generated_Source\PSoC5/PWM.c **** *  The PWM User Module consist of an 8 or 16-bit counter with two 8 or 16-bit
   7:Generated_Source\PSoC5/PWM.c **** *  comparitors. Each instance of this user module is capable of generating
   8:Generated_Source\PSoC5/PWM.c **** *  two PWM outputs with the same period. The pulse width is selectable between
   9:Generated_Source\PSoC5/PWM.c **** *  1 and 255/65535. The period is selectable between 2 and 255/65536 clocks.
  10:Generated_Source\PSoC5/PWM.c **** *  The compare value output may be configured to be active when the present
  11:Generated_Source\PSoC5/PWM.c **** *  counter is less than or less than/equal to the compare value.
  12:Generated_Source\PSoC5/PWM.c **** *  A terminal count output is also provided. It generates a pulse one clock
  13:Generated_Source\PSoC5/PWM.c **** *  width wide when the counter is equal to zero.
  14:Generated_Source\PSoC5/PWM.c **** *
  15:Generated_Source\PSoC5/PWM.c **** * Note:
  16:Generated_Source\PSoC5/PWM.c **** *
  17:Generated_Source\PSoC5/PWM.c **** *******************************************************************************
  18:Generated_Source\PSoC5/PWM.c **** * Copyright 2008-2014, Cypress Semiconductor Corporation.  All rights reserved.
  19:Generated_Source\PSoC5/PWM.c **** * You may use this file only in accordance with the license, terms, conditions,
  20:Generated_Source\PSoC5/PWM.c **** * disclaimers, and limitations in the end user license agreement accompanying
  21:Generated_Source\PSoC5/PWM.c **** * the software package with which this file was provided.
  22:Generated_Source\PSoC5/PWM.c **** ********************************************************************************/
  23:Generated_Source\PSoC5/PWM.c **** 
  24:Generated_Source\PSoC5/PWM.c **** #include "PWM.h"
  25:Generated_Source\PSoC5/PWM.c **** 
  26:Generated_Source\PSoC5/PWM.c **** /* Error message for removed <resource> through optimization */
  27:Generated_Source\PSoC5/PWM.c **** #ifdef PWM_PWMUDB_genblk1_ctrlreg__REMOVED
  28:Generated_Source\PSoC5/PWM.c ****     #error PWM_v3_30 detected with a constant 0 for the enable or \
  29:Generated_Source\PSoC5/PWM.c ****          constant 1 for reset. This will prevent the component from operating.
  30:Generated_Source\PSoC5/PWM.c **** #endif /* PWM_PWMUDB_genblk1_ctrlreg__REMOVED */
  31:Generated_Source\PSoC5/PWM.c **** 
ARM GAS  C:\Users\NICKBU~1\AppData\Local\Temp\ccgaX3fy.s 			page 2


  32:Generated_Source\PSoC5/PWM.c **** uint8 PWM_initVar = 0u;
  33:Generated_Source\PSoC5/PWM.c **** 
  34:Generated_Source\PSoC5/PWM.c **** 
  35:Generated_Source\PSoC5/PWM.c **** /*******************************************************************************
  36:Generated_Source\PSoC5/PWM.c **** * Function Name: PWM_Start
  37:Generated_Source\PSoC5/PWM.c **** ********************************************************************************
  38:Generated_Source\PSoC5/PWM.c **** *
  39:Generated_Source\PSoC5/PWM.c **** * Summary:
  40:Generated_Source\PSoC5/PWM.c **** *  The start function initializes the pwm with the default values, the
  41:Generated_Source\PSoC5/PWM.c **** *  enables the counter to begin counting.  It does not enable interrupts,
  42:Generated_Source\PSoC5/PWM.c **** *  the EnableInt command should be called if interrupt generation is required.
  43:Generated_Source\PSoC5/PWM.c **** *
  44:Generated_Source\PSoC5/PWM.c **** * Parameters:
  45:Generated_Source\PSoC5/PWM.c **** *  None
  46:Generated_Source\PSoC5/PWM.c **** *
  47:Generated_Source\PSoC5/PWM.c **** * Return:
  48:Generated_Source\PSoC5/PWM.c **** *  None
  49:Generated_Source\PSoC5/PWM.c **** *
  50:Generated_Source\PSoC5/PWM.c **** * Global variables:
  51:Generated_Source\PSoC5/PWM.c **** *  PWM_initVar: Is modified when this function is called for the
  52:Generated_Source\PSoC5/PWM.c **** *   first time. Is used to ensure that initialization happens only once.
  53:Generated_Source\PSoC5/PWM.c **** *
  54:Generated_Source\PSoC5/PWM.c **** *******************************************************************************/
  55:Generated_Source\PSoC5/PWM.c **** void PWM_Start(void) 
  56:Generated_Source\PSoC5/PWM.c **** {
  57:Generated_Source\PSoC5/PWM.c ****     /* If not Initialized then initialize all required hardware and software */
  58:Generated_Source\PSoC5/PWM.c ****     if(PWM_initVar == 0u)
  59:Generated_Source\PSoC5/PWM.c ****     {
  60:Generated_Source\PSoC5/PWM.c ****         PWM_Init();
  61:Generated_Source\PSoC5/PWM.c ****         PWM_initVar = 1u;
  62:Generated_Source\PSoC5/PWM.c ****     }
  63:Generated_Source\PSoC5/PWM.c ****     PWM_Enable();
  64:Generated_Source\PSoC5/PWM.c **** 
  65:Generated_Source\PSoC5/PWM.c **** }
  66:Generated_Source\PSoC5/PWM.c **** 
  67:Generated_Source\PSoC5/PWM.c **** 
  68:Generated_Source\PSoC5/PWM.c **** /*******************************************************************************
  69:Generated_Source\PSoC5/PWM.c **** * Function Name: PWM_Init
  70:Generated_Source\PSoC5/PWM.c **** ********************************************************************************
  71:Generated_Source\PSoC5/PWM.c **** *
  72:Generated_Source\PSoC5/PWM.c **** * Summary:
  73:Generated_Source\PSoC5/PWM.c **** *  Initialize component's parameters to the parameters set by user in the
  74:Generated_Source\PSoC5/PWM.c **** *  customizer of the component placed onto schematic. Usually called in
  75:Generated_Source\PSoC5/PWM.c **** *  PWM_Start().
  76:Generated_Source\PSoC5/PWM.c **** *
  77:Generated_Source\PSoC5/PWM.c **** * Parameters:
  78:Generated_Source\PSoC5/PWM.c **** *  None
  79:Generated_Source\PSoC5/PWM.c **** *
  80:Generated_Source\PSoC5/PWM.c **** * Return:
  81:Generated_Source\PSoC5/PWM.c **** *  None
  82:Generated_Source\PSoC5/PWM.c **** *
  83:Generated_Source\PSoC5/PWM.c **** *******************************************************************************/
  84:Generated_Source\PSoC5/PWM.c **** void PWM_Init(void) 
  85:Generated_Source\PSoC5/PWM.c **** {
  86:Generated_Source\PSoC5/PWM.c ****     #if (PWM_UsingFixedFunction || PWM_UseControl)
  87:Generated_Source\PSoC5/PWM.c ****         uint8 ctrl;
  88:Generated_Source\PSoC5/PWM.c ****     #endif /* (PWM_UsingFixedFunction || PWM_UseControl) */
ARM GAS  C:\Users\NICKBU~1\AppData\Local\Temp\ccgaX3fy.s 			page 3


  89:Generated_Source\PSoC5/PWM.c **** 
  90:Generated_Source\PSoC5/PWM.c ****     #if(!PWM_UsingFixedFunction)
  91:Generated_Source\PSoC5/PWM.c ****         #if(PWM_UseStatus)
  92:Generated_Source\PSoC5/PWM.c ****             /* Interrupt State Backup for Critical Region*/
  93:Generated_Source\PSoC5/PWM.c ****             uint8 PWM_interruptState;
  94:Generated_Source\PSoC5/PWM.c ****         #endif /* (PWM_UseStatus) */
  95:Generated_Source\PSoC5/PWM.c ****     #endif /* (!PWM_UsingFixedFunction) */
  96:Generated_Source\PSoC5/PWM.c **** 
  97:Generated_Source\PSoC5/PWM.c ****     #if (PWM_UsingFixedFunction)
  98:Generated_Source\PSoC5/PWM.c ****         /* You are allowed to write the compare value (FF only) */
  99:Generated_Source\PSoC5/PWM.c ****         PWM_CONTROL |= PWM_CFG0_MODE;
 100:Generated_Source\PSoC5/PWM.c ****         #if (PWM_DeadBand2_4)
 101:Generated_Source\PSoC5/PWM.c ****             PWM_CONTROL |= PWM_CFG0_DB;
 102:Generated_Source\PSoC5/PWM.c ****         #endif /* (PWM_DeadBand2_4) */
 103:Generated_Source\PSoC5/PWM.c **** 
 104:Generated_Source\PSoC5/PWM.c ****         ctrl = PWM_CONTROL3 & ((uint8 )(~PWM_CTRL_CMPMODE1_MASK));
 105:Generated_Source\PSoC5/PWM.c ****         PWM_CONTROL3 = ctrl | PWM_DEFAULT_COMPARE1_MODE;
 106:Generated_Source\PSoC5/PWM.c **** 
 107:Generated_Source\PSoC5/PWM.c ****          /* Clear and Set SYNCTC and SYNCCMP bits of RT1 register */
 108:Generated_Source\PSoC5/PWM.c ****         PWM_RT1 &= ((uint8)(~PWM_RT1_MASK));
 109:Generated_Source\PSoC5/PWM.c ****         PWM_RT1 |= PWM_SYNC;
 110:Generated_Source\PSoC5/PWM.c **** 
 111:Generated_Source\PSoC5/PWM.c ****         /*Enable DSI Sync all all inputs of the PWM*/
 112:Generated_Source\PSoC5/PWM.c ****         PWM_RT1 &= ((uint8)(~PWM_SYNCDSI_MASK));
 113:Generated_Source\PSoC5/PWM.c ****         PWM_RT1 |= PWM_SYNCDSI_EN;
 114:Generated_Source\PSoC5/PWM.c **** 
 115:Generated_Source\PSoC5/PWM.c ****     #elif (PWM_UseControl)
 116:Generated_Source\PSoC5/PWM.c ****         /* Set the default compare mode defined in the parameter */
 117:Generated_Source\PSoC5/PWM.c ****         ctrl = PWM_CONTROL & ((uint8)(~PWM_CTRL_CMPMODE2_MASK)) &
 118:Generated_Source\PSoC5/PWM.c ****                 ((uint8)(~PWM_CTRL_CMPMODE1_MASK));
 119:Generated_Source\PSoC5/PWM.c ****         PWM_CONTROL = ctrl | PWM_DEFAULT_COMPARE2_MODE |
 120:Generated_Source\PSoC5/PWM.c ****                                    PWM_DEFAULT_COMPARE1_MODE;
 121:Generated_Source\PSoC5/PWM.c ****     #endif /* (PWM_UsingFixedFunction) */
 122:Generated_Source\PSoC5/PWM.c **** 
 123:Generated_Source\PSoC5/PWM.c ****     #if (!PWM_UsingFixedFunction)
 124:Generated_Source\PSoC5/PWM.c ****         #if (PWM_Resolution == 8)
 125:Generated_Source\PSoC5/PWM.c ****             /* Set FIFO 0 to 1 byte register for period*/
 126:Generated_Source\PSoC5/PWM.c ****             PWM_AUX_CONTROLDP0 |= (PWM_AUX_CTRL_FIFO0_CLR);
 127:Generated_Source\PSoC5/PWM.c ****         #else /* (PWM_Resolution == 16)*/
 128:Generated_Source\PSoC5/PWM.c ****             /* Set FIFO 0 to 1 byte register for period */
 129:Generated_Source\PSoC5/PWM.c ****             PWM_AUX_CONTROLDP0 |= (PWM_AUX_CTRL_FIFO0_CLR);
 130:Generated_Source\PSoC5/PWM.c ****             PWM_AUX_CONTROLDP1 |= (PWM_AUX_CTRL_FIFO0_CLR);
 131:Generated_Source\PSoC5/PWM.c ****         #endif /* (PWM_Resolution == 8) */
 132:Generated_Source\PSoC5/PWM.c **** 
 133:Generated_Source\PSoC5/PWM.c ****         PWM_WriteCounter(PWM_INIT_PERIOD_VALUE);
 134:Generated_Source\PSoC5/PWM.c ****     #endif /* (!PWM_UsingFixedFunction) */
 135:Generated_Source\PSoC5/PWM.c **** 
 136:Generated_Source\PSoC5/PWM.c ****     PWM_WritePeriod(PWM_INIT_PERIOD_VALUE);
 137:Generated_Source\PSoC5/PWM.c **** 
 138:Generated_Source\PSoC5/PWM.c ****         #if (PWM_UseOneCompareMode)
 139:Generated_Source\PSoC5/PWM.c ****             PWM_WriteCompare(PWM_INIT_COMPARE_VALUE1);
 140:Generated_Source\PSoC5/PWM.c ****         #else
 141:Generated_Source\PSoC5/PWM.c ****             PWM_WriteCompare1(PWM_INIT_COMPARE_VALUE1);
 142:Generated_Source\PSoC5/PWM.c ****             PWM_WriteCompare2(PWM_INIT_COMPARE_VALUE2);
 143:Generated_Source\PSoC5/PWM.c ****         #endif /* (PWM_UseOneCompareMode) */
 144:Generated_Source\PSoC5/PWM.c **** 
 145:Generated_Source\PSoC5/PWM.c ****         #if (PWM_KillModeMinTime)
ARM GAS  C:\Users\NICKBU~1\AppData\Local\Temp\ccgaX3fy.s 			page 4


 146:Generated_Source\PSoC5/PWM.c ****             PWM_WriteKillTime(PWM_MinimumKillTime);
 147:Generated_Source\PSoC5/PWM.c ****         #endif /* (PWM_KillModeMinTime) */
 148:Generated_Source\PSoC5/PWM.c **** 
 149:Generated_Source\PSoC5/PWM.c ****         #if (PWM_DeadBandUsed)
 150:Generated_Source\PSoC5/PWM.c ****             PWM_WriteDeadTime(PWM_INIT_DEAD_TIME);
 151:Generated_Source\PSoC5/PWM.c ****         #endif /* (PWM_DeadBandUsed) */
 152:Generated_Source\PSoC5/PWM.c **** 
 153:Generated_Source\PSoC5/PWM.c ****     #if (PWM_UseStatus || PWM_UsingFixedFunction)
 154:Generated_Source\PSoC5/PWM.c ****         PWM_SetInterruptMode(PWM_INIT_INTERRUPTS_MODE);
 155:Generated_Source\PSoC5/PWM.c ****     #endif /* (PWM_UseStatus || PWM_UsingFixedFunction) */
 156:Generated_Source\PSoC5/PWM.c **** 
 157:Generated_Source\PSoC5/PWM.c ****     #if (PWM_UsingFixedFunction)
 158:Generated_Source\PSoC5/PWM.c ****         /* Globally Enable the Fixed Function Block chosen */
 159:Generated_Source\PSoC5/PWM.c ****         PWM_GLOBAL_ENABLE |= PWM_BLOCK_EN_MASK;
 160:Generated_Source\PSoC5/PWM.c ****         /* Set the Interrupt source to come from the status register */
 161:Generated_Source\PSoC5/PWM.c ****         PWM_CONTROL2 |= PWM_CTRL2_IRQ_SEL;
 162:Generated_Source\PSoC5/PWM.c ****     #else
 163:Generated_Source\PSoC5/PWM.c ****         #if(PWM_UseStatus)
 164:Generated_Source\PSoC5/PWM.c **** 
 165:Generated_Source\PSoC5/PWM.c ****             /* CyEnterCriticalRegion and CyExitCriticalRegion are used to mark following region cri
 166:Generated_Source\PSoC5/PWM.c ****             /* Enter Critical Region*/
 167:Generated_Source\PSoC5/PWM.c ****             PWM_interruptState = CyEnterCriticalSection();
 168:Generated_Source\PSoC5/PWM.c ****             /* Use the interrupt output of the status register for IRQ output */
 169:Generated_Source\PSoC5/PWM.c ****             PWM_STATUS_AUX_CTRL |= PWM_STATUS_ACTL_INT_EN_MASK;
 170:Generated_Source\PSoC5/PWM.c **** 
 171:Generated_Source\PSoC5/PWM.c ****              /* Exit Critical Region*/
 172:Generated_Source\PSoC5/PWM.c ****             CyExitCriticalSection(PWM_interruptState);
 173:Generated_Source\PSoC5/PWM.c **** 
 174:Generated_Source\PSoC5/PWM.c ****             /* Clear the FIFO to enable the PWM_STATUS_FIFOFULL
 175:Generated_Source\PSoC5/PWM.c ****                    bit to be set on FIFO full. */
 176:Generated_Source\PSoC5/PWM.c ****             PWM_ClearFIFO();
 177:Generated_Source\PSoC5/PWM.c ****         #endif /* (PWM_UseStatus) */
 178:Generated_Source\PSoC5/PWM.c ****     #endif /* (PWM_UsingFixedFunction) */
 179:Generated_Source\PSoC5/PWM.c **** }
 180:Generated_Source\PSoC5/PWM.c **** 
 181:Generated_Source\PSoC5/PWM.c **** 
 182:Generated_Source\PSoC5/PWM.c **** /*******************************************************************************
 183:Generated_Source\PSoC5/PWM.c **** * Function Name: PWM_Enable
 184:Generated_Source\PSoC5/PWM.c **** ********************************************************************************
 185:Generated_Source\PSoC5/PWM.c **** *
 186:Generated_Source\PSoC5/PWM.c **** * Summary:
 187:Generated_Source\PSoC5/PWM.c **** *  Enables the PWM block operation
 188:Generated_Source\PSoC5/PWM.c **** *
 189:Generated_Source\PSoC5/PWM.c **** * Parameters:
 190:Generated_Source\PSoC5/PWM.c **** *  None
 191:Generated_Source\PSoC5/PWM.c **** *
 192:Generated_Source\PSoC5/PWM.c **** * Return:
 193:Generated_Source\PSoC5/PWM.c **** *  None
 194:Generated_Source\PSoC5/PWM.c **** *
 195:Generated_Source\PSoC5/PWM.c **** * Side Effects:
 196:Generated_Source\PSoC5/PWM.c **** *  This works only if software enable mode is chosen
 197:Generated_Source\PSoC5/PWM.c **** *
 198:Generated_Source\PSoC5/PWM.c **** *******************************************************************************/
 199:Generated_Source\PSoC5/PWM.c **** void PWM_Enable(void) 
 200:Generated_Source\PSoC5/PWM.c **** {
  27              		.loc 1 200 0
  28              		.cfi_startproc
ARM GAS  C:\Users\NICKBU~1\AppData\Local\Temp\ccgaX3fy.s 			page 5


  29              		@ args = 0, pretend = 0, frame = 0
  30              		@ frame_needed = 0, uses_anonymous_args = 0
  31              		@ link register save eliminated.
 201:Generated_Source\PSoC5/PWM.c ****     /* Globally Enable the Fixed Function Block chosen */
 202:Generated_Source\PSoC5/PWM.c ****     #if (PWM_UsingFixedFunction)
 203:Generated_Source\PSoC5/PWM.c ****         PWM_GLOBAL_ENABLE |= PWM_BLOCK_EN_MASK;
 204:Generated_Source\PSoC5/PWM.c ****         PWM_GLOBAL_STBY_ENABLE |= PWM_BLOCK_STBY_EN_MASK;
 205:Generated_Source\PSoC5/PWM.c ****     #endif /* (PWM_UsingFixedFunction) */
 206:Generated_Source\PSoC5/PWM.c **** 
 207:Generated_Source\PSoC5/PWM.c ****     /* Enable the PWM from the control register  */
 208:Generated_Source\PSoC5/PWM.c ****     #if (PWM_UseControl || PWM_UsingFixedFunction)
 209:Generated_Source\PSoC5/PWM.c ****         PWM_CONTROL |= PWM_CTRL_ENABLE;
  32              		.loc 1 209 0
  33 0000 024A     		ldr	r2, .L2
  34 0002 1378     		ldrb	r3, [r2]	@ zero_extendqisi2
  35 0004 43F08003 		orr	r3, r3, #128
  36 0008 1370     		strb	r3, [r2]
  37 000a 7047     		bx	lr
  38              	.L3:
  39              		.align	2
  40              	.L2:
  41 000c 76650040 		.word	1073767798
  42              		.cfi_endproc
  43              	.LFE2:
  44              		.size	PWM_Enable, .-PWM_Enable
  45              		.section	.text.PWM_Stop,"ax",%progbits
  46              		.align	2
  47              		.global	PWM_Stop
  48              		.thumb
  49              		.thumb_func
  50              		.type	PWM_Stop, %function
  51              	PWM_Stop:
  52              	.LFB3:
 210:Generated_Source\PSoC5/PWM.c ****     #endif /* (PWM_UseControl || PWM_UsingFixedFunction) */
 211:Generated_Source\PSoC5/PWM.c **** }
 212:Generated_Source\PSoC5/PWM.c **** 
 213:Generated_Source\PSoC5/PWM.c **** 
 214:Generated_Source\PSoC5/PWM.c **** /*******************************************************************************
 215:Generated_Source\PSoC5/PWM.c **** * Function Name: PWM_Stop
 216:Generated_Source\PSoC5/PWM.c **** ********************************************************************************
 217:Generated_Source\PSoC5/PWM.c **** *
 218:Generated_Source\PSoC5/PWM.c **** * Summary:
 219:Generated_Source\PSoC5/PWM.c **** *  The stop function halts the PWM, but does not change any modes or disable
 220:Generated_Source\PSoC5/PWM.c **** *  interrupts.
 221:Generated_Source\PSoC5/PWM.c **** *
 222:Generated_Source\PSoC5/PWM.c **** * Parameters:
 223:Generated_Source\PSoC5/PWM.c **** *  None
 224:Generated_Source\PSoC5/PWM.c **** *
 225:Generated_Source\PSoC5/PWM.c **** * Return:
 226:Generated_Source\PSoC5/PWM.c **** *  None
 227:Generated_Source\PSoC5/PWM.c **** *
 228:Generated_Source\PSoC5/PWM.c **** * Side Effects:
 229:Generated_Source\PSoC5/PWM.c **** *  If the Enable mode is set to Hardware only then this function
 230:Generated_Source\PSoC5/PWM.c **** *  has no effect on the operation of the PWM
 231:Generated_Source\PSoC5/PWM.c **** *
 232:Generated_Source\PSoC5/PWM.c **** *******************************************************************************/
 233:Generated_Source\PSoC5/PWM.c **** void PWM_Stop(void) 
ARM GAS  C:\Users\NICKBU~1\AppData\Local\Temp\ccgaX3fy.s 			page 6


 234:Generated_Source\PSoC5/PWM.c **** {
  53              		.loc 1 234 0
  54              		.cfi_startproc
  55              		@ args = 0, pretend = 0, frame = 0
  56              		@ frame_needed = 0, uses_anonymous_args = 0
  57              		@ link register save eliminated.
 235:Generated_Source\PSoC5/PWM.c ****     #if (PWM_UseControl || PWM_UsingFixedFunction)
 236:Generated_Source\PSoC5/PWM.c ****         PWM_CONTROL &= ((uint8)(~PWM_CTRL_ENABLE));
  58              		.loc 1 236 0
  59 0000 024A     		ldr	r2, .L5
  60 0002 1378     		ldrb	r3, [r2]	@ zero_extendqisi2
  61 0004 03F07F03 		and	r3, r3, #127
  62 0008 1370     		strb	r3, [r2]
  63 000a 7047     		bx	lr
  64              	.L6:
  65              		.align	2
  66              	.L5:
  67 000c 76650040 		.word	1073767798
  68              		.cfi_endproc
  69              	.LFE3:
  70              		.size	PWM_Stop, .-PWM_Stop
  71              		.section	.text.PWM_WriteCounter,"ax",%progbits
  72              		.align	2
  73              		.global	PWM_WriteCounter
  74              		.thumb
  75              		.thumb_func
  76              		.type	PWM_WriteCounter, %function
  77              	PWM_WriteCounter:
  78              	.LFB4:
 237:Generated_Source\PSoC5/PWM.c ****     #endif /* (PWM_UseControl || PWM_UsingFixedFunction) */
 238:Generated_Source\PSoC5/PWM.c **** 
 239:Generated_Source\PSoC5/PWM.c ****     /* Globally disable the Fixed Function Block chosen */
 240:Generated_Source\PSoC5/PWM.c ****     #if (PWM_UsingFixedFunction)
 241:Generated_Source\PSoC5/PWM.c ****         PWM_GLOBAL_ENABLE &= ((uint8)(~PWM_BLOCK_EN_MASK));
 242:Generated_Source\PSoC5/PWM.c ****         PWM_GLOBAL_STBY_ENABLE &= ((uint8)(~PWM_BLOCK_STBY_EN_MASK));
 243:Generated_Source\PSoC5/PWM.c ****     #endif /* (PWM_UsingFixedFunction) */
 244:Generated_Source\PSoC5/PWM.c **** }
 245:Generated_Source\PSoC5/PWM.c **** 
 246:Generated_Source\PSoC5/PWM.c **** #if (PWM_UseOneCompareMode)
 247:Generated_Source\PSoC5/PWM.c ****     #if (PWM_CompareMode1SW)
 248:Generated_Source\PSoC5/PWM.c **** 
 249:Generated_Source\PSoC5/PWM.c **** 
 250:Generated_Source\PSoC5/PWM.c ****         /*******************************************************************************
 251:Generated_Source\PSoC5/PWM.c ****         * Function Name: PWM_SetCompareMode
 252:Generated_Source\PSoC5/PWM.c ****         ********************************************************************************
 253:Generated_Source\PSoC5/PWM.c ****         *
 254:Generated_Source\PSoC5/PWM.c ****         * Summary:
 255:Generated_Source\PSoC5/PWM.c ****         *  This function writes the Compare Mode for the pwm output when in Dither mode,
 256:Generated_Source\PSoC5/PWM.c ****         *  Center Align Mode or One Output Mode.
 257:Generated_Source\PSoC5/PWM.c ****         *
 258:Generated_Source\PSoC5/PWM.c ****         * Parameters:
 259:Generated_Source\PSoC5/PWM.c ****         *  comparemode:  The new compare mode for the PWM output. Use the compare types
 260:Generated_Source\PSoC5/PWM.c ****         *                defined in the H file as input arguments.
 261:Generated_Source\PSoC5/PWM.c ****         *
 262:Generated_Source\PSoC5/PWM.c ****         * Return:
 263:Generated_Source\PSoC5/PWM.c ****         *  None
 264:Generated_Source\PSoC5/PWM.c ****         *
ARM GAS  C:\Users\NICKBU~1\AppData\Local\Temp\ccgaX3fy.s 			page 7


 265:Generated_Source\PSoC5/PWM.c ****         *******************************************************************************/
 266:Generated_Source\PSoC5/PWM.c ****         void PWM_SetCompareMode(uint8 comparemode) 
 267:Generated_Source\PSoC5/PWM.c ****         {
 268:Generated_Source\PSoC5/PWM.c ****             #if(PWM_UsingFixedFunction)
 269:Generated_Source\PSoC5/PWM.c **** 
 270:Generated_Source\PSoC5/PWM.c ****                 #if(0 != PWM_CTRL_CMPMODE1_SHIFT)
 271:Generated_Source\PSoC5/PWM.c ****                     uint8 comparemodemasked = ((uint8)((uint8)comparemode << PWM_CTRL_CMPMODE1_SHIF
 272:Generated_Source\PSoC5/PWM.c ****                 #else
 273:Generated_Source\PSoC5/PWM.c ****                     uint8 comparemodemasked = comparemode;
 274:Generated_Source\PSoC5/PWM.c ****                 #endif /* (0 != PWM_CTRL_CMPMODE1_SHIFT) */
 275:Generated_Source\PSoC5/PWM.c **** 
 276:Generated_Source\PSoC5/PWM.c ****                 PWM_CONTROL3 &= ((uint8)(~PWM_CTRL_CMPMODE1_MASK)); /*Clear Existing Data */
 277:Generated_Source\PSoC5/PWM.c ****                 PWM_CONTROL3 |= comparemodemasked;
 278:Generated_Source\PSoC5/PWM.c **** 
 279:Generated_Source\PSoC5/PWM.c ****             #elif (PWM_UseControl)
 280:Generated_Source\PSoC5/PWM.c **** 
 281:Generated_Source\PSoC5/PWM.c ****                 #if(0 != PWM_CTRL_CMPMODE1_SHIFT)
 282:Generated_Source\PSoC5/PWM.c ****                     uint8 comparemode1masked = ((uint8)((uint8)comparemode << PWM_CTRL_CMPMODE1_SHI
 283:Generated_Source\PSoC5/PWM.c ****                                                 PWM_CTRL_CMPMODE1_MASK;
 284:Generated_Source\PSoC5/PWM.c ****                 #else
 285:Generated_Source\PSoC5/PWM.c ****                     uint8 comparemode1masked = comparemode & PWM_CTRL_CMPMODE1_MASK;
 286:Generated_Source\PSoC5/PWM.c ****                 #endif /* (0 != PWM_CTRL_CMPMODE1_SHIFT) */
 287:Generated_Source\PSoC5/PWM.c **** 
 288:Generated_Source\PSoC5/PWM.c ****                 #if(0 != PWM_CTRL_CMPMODE2_SHIFT)
 289:Generated_Source\PSoC5/PWM.c ****                     uint8 comparemode2masked = ((uint8)((uint8)comparemode << PWM_CTRL_CMPMODE2_SHI
 290:Generated_Source\PSoC5/PWM.c ****                                                PWM_CTRL_CMPMODE2_MASK;
 291:Generated_Source\PSoC5/PWM.c ****                 #else
 292:Generated_Source\PSoC5/PWM.c ****                     uint8 comparemode2masked = comparemode & PWM_CTRL_CMPMODE2_MASK;
 293:Generated_Source\PSoC5/PWM.c ****                 #endif /* (0 != PWM_CTRL_CMPMODE2_SHIFT) */
 294:Generated_Source\PSoC5/PWM.c **** 
 295:Generated_Source\PSoC5/PWM.c ****                 /*Clear existing mode */
 296:Generated_Source\PSoC5/PWM.c ****                 PWM_CONTROL &= ((uint8)(~(PWM_CTRL_CMPMODE1_MASK |
 297:Generated_Source\PSoC5/PWM.c ****                                             PWM_CTRL_CMPMODE2_MASK)));
 298:Generated_Source\PSoC5/PWM.c ****                 PWM_CONTROL |= (comparemode1masked | comparemode2masked);
 299:Generated_Source\PSoC5/PWM.c **** 
 300:Generated_Source\PSoC5/PWM.c ****             #else
 301:Generated_Source\PSoC5/PWM.c ****                 uint8 temp = comparemode;
 302:Generated_Source\PSoC5/PWM.c ****             #endif /* (PWM_UsingFixedFunction) */
 303:Generated_Source\PSoC5/PWM.c ****         }
 304:Generated_Source\PSoC5/PWM.c ****     #endif /* PWM_CompareMode1SW */
 305:Generated_Source\PSoC5/PWM.c **** 
 306:Generated_Source\PSoC5/PWM.c **** #else /* UseOneCompareMode */
 307:Generated_Source\PSoC5/PWM.c **** 
 308:Generated_Source\PSoC5/PWM.c ****     #if (PWM_CompareMode1SW)
 309:Generated_Source\PSoC5/PWM.c **** 
 310:Generated_Source\PSoC5/PWM.c **** 
 311:Generated_Source\PSoC5/PWM.c ****         /*******************************************************************************
 312:Generated_Source\PSoC5/PWM.c ****         * Function Name: PWM_SetCompareMode1
 313:Generated_Source\PSoC5/PWM.c ****         ********************************************************************************
 314:Generated_Source\PSoC5/PWM.c ****         *
 315:Generated_Source\PSoC5/PWM.c ****         * Summary:
 316:Generated_Source\PSoC5/PWM.c ****         *  This function writes the Compare Mode for the pwm or pwm1 output
 317:Generated_Source\PSoC5/PWM.c ****         *
 318:Generated_Source\PSoC5/PWM.c ****         * Parameters:
 319:Generated_Source\PSoC5/PWM.c ****         *  comparemode:  The new compare mode for the PWM output. Use the compare types
 320:Generated_Source\PSoC5/PWM.c ****         *                defined in the H file as input arguments.
 321:Generated_Source\PSoC5/PWM.c ****         *
ARM GAS  C:\Users\NICKBU~1\AppData\Local\Temp\ccgaX3fy.s 			page 8


 322:Generated_Source\PSoC5/PWM.c ****         * Return:
 323:Generated_Source\PSoC5/PWM.c ****         *  None
 324:Generated_Source\PSoC5/PWM.c ****         *
 325:Generated_Source\PSoC5/PWM.c ****         *******************************************************************************/
 326:Generated_Source\PSoC5/PWM.c ****         void PWM_SetCompareMode1(uint8 comparemode) 
 327:Generated_Source\PSoC5/PWM.c ****         {
 328:Generated_Source\PSoC5/PWM.c ****             #if(0 != PWM_CTRL_CMPMODE1_SHIFT)
 329:Generated_Source\PSoC5/PWM.c ****                 uint8 comparemodemasked = ((uint8)((uint8)comparemode << PWM_CTRL_CMPMODE1_SHIFT)) 
 330:Generated_Source\PSoC5/PWM.c ****                                            PWM_CTRL_CMPMODE1_MASK;
 331:Generated_Source\PSoC5/PWM.c ****             #else
 332:Generated_Source\PSoC5/PWM.c ****                 uint8 comparemodemasked = comparemode & PWM_CTRL_CMPMODE1_MASK;
 333:Generated_Source\PSoC5/PWM.c ****             #endif /* (0 != PWM_CTRL_CMPMODE1_SHIFT) */
 334:Generated_Source\PSoC5/PWM.c **** 
 335:Generated_Source\PSoC5/PWM.c ****             #if (PWM_UseControl)
 336:Generated_Source\PSoC5/PWM.c ****                 PWM_CONTROL &= ((uint8)(~PWM_CTRL_CMPMODE1_MASK)); /*Clear existing mode */
 337:Generated_Source\PSoC5/PWM.c ****                 PWM_CONTROL |= comparemodemasked;
 338:Generated_Source\PSoC5/PWM.c ****             #endif /* (PWM_UseControl) */
 339:Generated_Source\PSoC5/PWM.c ****         }
 340:Generated_Source\PSoC5/PWM.c ****     #endif /* PWM_CompareMode1SW */
 341:Generated_Source\PSoC5/PWM.c **** 
 342:Generated_Source\PSoC5/PWM.c **** #if (PWM_CompareMode2SW)
 343:Generated_Source\PSoC5/PWM.c **** 
 344:Generated_Source\PSoC5/PWM.c **** 
 345:Generated_Source\PSoC5/PWM.c ****     /*******************************************************************************
 346:Generated_Source\PSoC5/PWM.c ****     * Function Name: PWM_SetCompareMode2
 347:Generated_Source\PSoC5/PWM.c ****     ********************************************************************************
 348:Generated_Source\PSoC5/PWM.c ****     *
 349:Generated_Source\PSoC5/PWM.c ****     * Summary:
 350:Generated_Source\PSoC5/PWM.c ****     *  This function writes the Compare Mode for the pwm or pwm2 output
 351:Generated_Source\PSoC5/PWM.c ****     *
 352:Generated_Source\PSoC5/PWM.c ****     * Parameters:
 353:Generated_Source\PSoC5/PWM.c ****     *  comparemode:  The new compare mode for the PWM output. Use the compare types
 354:Generated_Source\PSoC5/PWM.c ****     *                defined in the H file as input arguments.
 355:Generated_Source\PSoC5/PWM.c ****     *
 356:Generated_Source\PSoC5/PWM.c ****     * Return:
 357:Generated_Source\PSoC5/PWM.c ****     *  None
 358:Generated_Source\PSoC5/PWM.c ****     *
 359:Generated_Source\PSoC5/PWM.c ****     *******************************************************************************/
 360:Generated_Source\PSoC5/PWM.c ****     void PWM_SetCompareMode2(uint8 comparemode) 
 361:Generated_Source\PSoC5/PWM.c ****     {
 362:Generated_Source\PSoC5/PWM.c **** 
 363:Generated_Source\PSoC5/PWM.c ****         #if(0 != PWM_CTRL_CMPMODE2_SHIFT)
 364:Generated_Source\PSoC5/PWM.c ****             uint8 comparemodemasked = ((uint8)((uint8)comparemode << PWM_CTRL_CMPMODE2_SHIFT)) &
 365:Generated_Source\PSoC5/PWM.c ****                                                  PWM_CTRL_CMPMODE2_MASK;
 366:Generated_Source\PSoC5/PWM.c ****         #else
 367:Generated_Source\PSoC5/PWM.c ****             uint8 comparemodemasked = comparemode & PWM_CTRL_CMPMODE2_MASK;
 368:Generated_Source\PSoC5/PWM.c ****         #endif /* (0 != PWM_CTRL_CMPMODE2_SHIFT) */
 369:Generated_Source\PSoC5/PWM.c **** 
 370:Generated_Source\PSoC5/PWM.c ****         #if (PWM_UseControl)
 371:Generated_Source\PSoC5/PWM.c ****             PWM_CONTROL &= ((uint8)(~PWM_CTRL_CMPMODE2_MASK)); /*Clear existing mode */
 372:Generated_Source\PSoC5/PWM.c ****             PWM_CONTROL |= comparemodemasked;
 373:Generated_Source\PSoC5/PWM.c ****         #endif /* (PWM_UseControl) */
 374:Generated_Source\PSoC5/PWM.c ****     }
 375:Generated_Source\PSoC5/PWM.c ****     #endif /*PWM_CompareMode2SW */
 376:Generated_Source\PSoC5/PWM.c **** 
 377:Generated_Source\PSoC5/PWM.c **** #endif /* UseOneCompareMode */
 378:Generated_Source\PSoC5/PWM.c **** 
ARM GAS  C:\Users\NICKBU~1\AppData\Local\Temp\ccgaX3fy.s 			page 9


 379:Generated_Source\PSoC5/PWM.c **** 
 380:Generated_Source\PSoC5/PWM.c **** #if (!PWM_UsingFixedFunction)
 381:Generated_Source\PSoC5/PWM.c **** 
 382:Generated_Source\PSoC5/PWM.c **** 
 383:Generated_Source\PSoC5/PWM.c ****     /*******************************************************************************
 384:Generated_Source\PSoC5/PWM.c ****     * Function Name: PWM_WriteCounter
 385:Generated_Source\PSoC5/PWM.c ****     ********************************************************************************
 386:Generated_Source\PSoC5/PWM.c ****     *
 387:Generated_Source\PSoC5/PWM.c ****     * Summary:
 388:Generated_Source\PSoC5/PWM.c ****     *  Writes a new counter value directly to the counter register. This will be
 389:Generated_Source\PSoC5/PWM.c ****     *  implemented for that currently running period and only that period. This API
 390:Generated_Source\PSoC5/PWM.c ****     *  is valid only for UDB implementation and not available for fixed function
 391:Generated_Source\PSoC5/PWM.c ****     *  PWM implementation.
 392:Generated_Source\PSoC5/PWM.c ****     *
 393:Generated_Source\PSoC5/PWM.c ****     * Parameters:
 394:Generated_Source\PSoC5/PWM.c ****     *  counter:  The period new period counter value.
 395:Generated_Source\PSoC5/PWM.c ****     *
 396:Generated_Source\PSoC5/PWM.c ****     * Return:
 397:Generated_Source\PSoC5/PWM.c ****     *  None
 398:Generated_Source\PSoC5/PWM.c ****     *
 399:Generated_Source\PSoC5/PWM.c ****     * Side Effects:
 400:Generated_Source\PSoC5/PWM.c ****     *  The PWM Period will be reloaded when a counter value will be a zero
 401:Generated_Source\PSoC5/PWM.c ****     *
 402:Generated_Source\PSoC5/PWM.c ****     *******************************************************************************/
 403:Generated_Source\PSoC5/PWM.c ****     void PWM_WriteCounter(uint16 counter) \
 404:Generated_Source\PSoC5/PWM.c ****                                        
 405:Generated_Source\PSoC5/PWM.c ****     {
  79              		.loc 1 405 0
  80              		.cfi_startproc
  81              		@ args = 0, pretend = 0, frame = 0
  82              		@ frame_needed = 0, uses_anonymous_args = 0
  83              		@ link register save eliminated.
  84              	.LVL0:
 406:Generated_Source\PSoC5/PWM.c ****         CY_SET_REG16(PWM_COUNTER_LSB_PTR, counter);
  85              		.loc 1 406 0
  86 0000 014B     		ldr	r3, .L8
  87 0002 1880     		strh	r0, [r3]	@ movhi
  88 0004 7047     		bx	lr
  89              	.L9:
  90 0006 00BF     		.align	2
  91              	.L8:
  92 0008 086A0040 		.word	1073768968
  93              		.cfi_endproc
  94              	.LFE4:
  95              		.size	PWM_WriteCounter, .-PWM_WriteCounter
  96              		.section	.text.PWM_ReadCounter,"ax",%progbits
  97              		.align	2
  98              		.global	PWM_ReadCounter
  99              		.thumb
 100              		.thumb_func
 101              		.type	PWM_ReadCounter, %function
 102              	PWM_ReadCounter:
 103              	.LFB5:
 407:Generated_Source\PSoC5/PWM.c ****     }
 408:Generated_Source\PSoC5/PWM.c **** 
 409:Generated_Source\PSoC5/PWM.c **** 
 410:Generated_Source\PSoC5/PWM.c ****     /*******************************************************************************
ARM GAS  C:\Users\NICKBU~1\AppData\Local\Temp\ccgaX3fy.s 			page 10


 411:Generated_Source\PSoC5/PWM.c ****     * Function Name: PWM_ReadCounter
 412:Generated_Source\PSoC5/PWM.c ****     ********************************************************************************
 413:Generated_Source\PSoC5/PWM.c ****     *
 414:Generated_Source\PSoC5/PWM.c ****     * Summary:
 415:Generated_Source\PSoC5/PWM.c ****     *  This function returns the current value of the counter.  It doesn't matter
 416:Generated_Source\PSoC5/PWM.c ****     *  if the counter is enabled or running.
 417:Generated_Source\PSoC5/PWM.c ****     *
 418:Generated_Source\PSoC5/PWM.c ****     * Parameters:
 419:Generated_Source\PSoC5/PWM.c ****     *  None
 420:Generated_Source\PSoC5/PWM.c ****     *
 421:Generated_Source\PSoC5/PWM.c ****     * Return:
 422:Generated_Source\PSoC5/PWM.c ****     *  The current value of the counter.
 423:Generated_Source\PSoC5/PWM.c ****     *
 424:Generated_Source\PSoC5/PWM.c ****     *******************************************************************************/
 425:Generated_Source\PSoC5/PWM.c ****     uint16 PWM_ReadCounter(void) 
 426:Generated_Source\PSoC5/PWM.c ****     {
 104              		.loc 1 426 0
 105              		.cfi_startproc
 106              		@ args = 0, pretend = 0, frame = 0
 107              		@ frame_needed = 0, uses_anonymous_args = 0
 108              		@ link register save eliminated.
 427:Generated_Source\PSoC5/PWM.c ****         /* Force capture by reading Accumulator */
 428:Generated_Source\PSoC5/PWM.c ****         /* Must first do a software capture to be able to read the counter */
 429:Generated_Source\PSoC5/PWM.c ****         /* It is up to the user code to make sure there isn't already captured data in the FIFO */
 430:Generated_Source\PSoC5/PWM.c ****           (void)CY_GET_REG8(PWM_COUNTERCAP_LSB_PTR_8BIT);
 109              		.loc 1 430 0
 110 0000 024B     		ldr	r3, .L11
 111 0002 1B78     		ldrb	r3, [r3]	@ zero_extendqisi2
 431:Generated_Source\PSoC5/PWM.c **** 
 432:Generated_Source\PSoC5/PWM.c ****         /* Read the data from the FIFO */
 433:Generated_Source\PSoC5/PWM.c ****         return (CY_GET_REG16(PWM_CAPTURE_LSB_PTR));
 112              		.loc 1 433 0
 113 0004 024B     		ldr	r3, .L11+4
 114 0006 1888     		ldrh	r0, [r3]
 434:Generated_Source\PSoC5/PWM.c ****     }
 115              		.loc 1 434 0
 116 0008 80B2     		uxth	r0, r0
 117 000a 7047     		bx	lr
 118              	.L12:
 119              		.align	2
 120              	.L11:
 121 000c 14650040 		.word	1073767700
 122 0010 A86A0040 		.word	1073769128
 123              		.cfi_endproc
 124              	.LFE5:
 125              		.size	PWM_ReadCounter, .-PWM_ReadCounter
 126              		.section	.text.PWM_WritePeriod,"ax",%progbits
 127              		.align	2
 128              		.global	PWM_WritePeriod
 129              		.thumb
 130              		.thumb_func
 131              		.type	PWM_WritePeriod, %function
 132              	PWM_WritePeriod:
 133              	.LFB7:
 435:Generated_Source\PSoC5/PWM.c **** 
 436:Generated_Source\PSoC5/PWM.c ****     #if (PWM_UseStatus)
 437:Generated_Source\PSoC5/PWM.c **** 
ARM GAS  C:\Users\NICKBU~1\AppData\Local\Temp\ccgaX3fy.s 			page 11


 438:Generated_Source\PSoC5/PWM.c **** 
 439:Generated_Source\PSoC5/PWM.c ****         /*******************************************************************************
 440:Generated_Source\PSoC5/PWM.c ****         * Function Name: PWM_ClearFIFO
 441:Generated_Source\PSoC5/PWM.c ****         ********************************************************************************
 442:Generated_Source\PSoC5/PWM.c ****         *
 443:Generated_Source\PSoC5/PWM.c ****         * Summary:
 444:Generated_Source\PSoC5/PWM.c ****         *  This function clears all capture data from the capture FIFO
 445:Generated_Source\PSoC5/PWM.c ****         *
 446:Generated_Source\PSoC5/PWM.c ****         * Parameters:
 447:Generated_Source\PSoC5/PWM.c ****         *  None
 448:Generated_Source\PSoC5/PWM.c ****         *
 449:Generated_Source\PSoC5/PWM.c ****         * Return:
 450:Generated_Source\PSoC5/PWM.c ****         *  None
 451:Generated_Source\PSoC5/PWM.c ****         *
 452:Generated_Source\PSoC5/PWM.c ****         *******************************************************************************/
 453:Generated_Source\PSoC5/PWM.c ****         void PWM_ClearFIFO(void) 
 454:Generated_Source\PSoC5/PWM.c ****         {
 455:Generated_Source\PSoC5/PWM.c ****             while(0u != (PWM_ReadStatusRegister() & PWM_STATUS_FIFONEMPTY))
 456:Generated_Source\PSoC5/PWM.c ****             {
 457:Generated_Source\PSoC5/PWM.c ****                 (void)PWM_ReadCapture();
 458:Generated_Source\PSoC5/PWM.c ****             }
 459:Generated_Source\PSoC5/PWM.c ****         }
 460:Generated_Source\PSoC5/PWM.c **** 
 461:Generated_Source\PSoC5/PWM.c ****     #endif /* PWM_UseStatus */
 462:Generated_Source\PSoC5/PWM.c **** 
 463:Generated_Source\PSoC5/PWM.c **** #endif /* !PWM_UsingFixedFunction */
 464:Generated_Source\PSoC5/PWM.c **** 
 465:Generated_Source\PSoC5/PWM.c **** 
 466:Generated_Source\PSoC5/PWM.c **** /*******************************************************************************
 467:Generated_Source\PSoC5/PWM.c **** * Function Name: PWM_WritePeriod
 468:Generated_Source\PSoC5/PWM.c **** ********************************************************************************
 469:Generated_Source\PSoC5/PWM.c **** *
 470:Generated_Source\PSoC5/PWM.c **** * Summary:
 471:Generated_Source\PSoC5/PWM.c **** *  This function is used to change the period of the counter.  The new period
 472:Generated_Source\PSoC5/PWM.c **** *  will be loaded the next time terminal count is detected.
 473:Generated_Source\PSoC5/PWM.c **** *
 474:Generated_Source\PSoC5/PWM.c **** * Parameters:
 475:Generated_Source\PSoC5/PWM.c **** *  period:  Period value. May be between 1 and (2^Resolution)-1.  A value of 0
 476:Generated_Source\PSoC5/PWM.c **** *           will result in the counter remaining at zero.
 477:Generated_Source\PSoC5/PWM.c **** *
 478:Generated_Source\PSoC5/PWM.c **** * Return:
 479:Generated_Source\PSoC5/PWM.c **** *  None
 480:Generated_Source\PSoC5/PWM.c **** *
 481:Generated_Source\PSoC5/PWM.c **** *******************************************************************************/
 482:Generated_Source\PSoC5/PWM.c **** void PWM_WritePeriod(uint16 period) 
 483:Generated_Source\PSoC5/PWM.c **** {
 134              		.loc 1 483 0
 135              		.cfi_startproc
 136              		@ args = 0, pretend = 0, frame = 0
 137              		@ frame_needed = 0, uses_anonymous_args = 0
 138              		@ link register save eliminated.
 139              	.LVL1:
 484:Generated_Source\PSoC5/PWM.c ****     #if(PWM_UsingFixedFunction)
 485:Generated_Source\PSoC5/PWM.c ****         CY_SET_REG16(PWM_PERIOD_LSB_PTR, (uint16)period);
 486:Generated_Source\PSoC5/PWM.c ****     #else
 487:Generated_Source\PSoC5/PWM.c ****         CY_SET_REG16(PWM_PERIOD_LSB_PTR, period);
 140              		.loc 1 487 0
ARM GAS  C:\Users\NICKBU~1\AppData\Local\Temp\ccgaX3fy.s 			page 12


 141 0000 014B     		ldr	r3, .L14
 142 0002 1880     		strh	r0, [r3]	@ movhi
 143 0004 7047     		bx	lr
 144              	.L15:
 145 0006 00BF     		.align	2
 146              	.L14:
 147 0008 886A0040 		.word	1073769096
 148              		.cfi_endproc
 149              	.LFE7:
 150              		.size	PWM_WritePeriod, .-PWM_WritePeriod
 151              		.section	.text.PWM_WriteCompare,"ax",%progbits
 152              		.align	2
 153              		.global	PWM_WriteCompare
 154              		.thumb
 155              		.thumb_func
 156              		.type	PWM_WriteCompare, %function
 157              	PWM_WriteCompare:
 158              	.LFB8:
 488:Generated_Source\PSoC5/PWM.c ****     #endif /* (PWM_UsingFixedFunction) */
 489:Generated_Source\PSoC5/PWM.c **** }
 490:Generated_Source\PSoC5/PWM.c **** 
 491:Generated_Source\PSoC5/PWM.c **** #if (PWM_UseOneCompareMode)
 492:Generated_Source\PSoC5/PWM.c **** 
 493:Generated_Source\PSoC5/PWM.c **** 
 494:Generated_Source\PSoC5/PWM.c ****     /*******************************************************************************
 495:Generated_Source\PSoC5/PWM.c ****     * Function Name: PWM_WriteCompare
 496:Generated_Source\PSoC5/PWM.c ****     ********************************************************************************
 497:Generated_Source\PSoC5/PWM.c ****     *
 498:Generated_Source\PSoC5/PWM.c ****     * Summary:
 499:Generated_Source\PSoC5/PWM.c ****     *  This funtion is used to change the compare1 value when the PWM is in Dither
 500:Generated_Source\PSoC5/PWM.c ****     *  mode. The compare output will reflect the new value on the next UDB clock.
 501:Generated_Source\PSoC5/PWM.c ****     *  The compare output will be driven high when the present counter value is
 502:Generated_Source\PSoC5/PWM.c ****     *  compared to the compare value based on the compare mode defined in
 503:Generated_Source\PSoC5/PWM.c ****     *  Dither Mode.
 504:Generated_Source\PSoC5/PWM.c ****     *
 505:Generated_Source\PSoC5/PWM.c ****     * Parameters:
 506:Generated_Source\PSoC5/PWM.c ****     *  compare:  New compare value.
 507:Generated_Source\PSoC5/PWM.c ****     *
 508:Generated_Source\PSoC5/PWM.c ****     * Return:
 509:Generated_Source\PSoC5/PWM.c ****     *  None
 510:Generated_Source\PSoC5/PWM.c ****     *
 511:Generated_Source\PSoC5/PWM.c ****     * Side Effects:
 512:Generated_Source\PSoC5/PWM.c ****     *  This function is only available if the PWM mode parameter is set to
 513:Generated_Source\PSoC5/PWM.c ****     *  Dither Mode, Center Aligned Mode or One Output Mode
 514:Generated_Source\PSoC5/PWM.c ****     *
 515:Generated_Source\PSoC5/PWM.c ****     *******************************************************************************/
 516:Generated_Source\PSoC5/PWM.c ****     void PWM_WriteCompare(uint16 compare) \
 517:Generated_Source\PSoC5/PWM.c ****                                        
 518:Generated_Source\PSoC5/PWM.c ****     {
 159              		.loc 1 518 0
 160              		.cfi_startproc
 161              		@ args = 0, pretend = 0, frame = 0
 162              		@ frame_needed = 0, uses_anonymous_args = 0
 163              		@ link register save eliminated.
 164              	.LVL2:
 519:Generated_Source\PSoC5/PWM.c ****         #if(PWM_UsingFixedFunction)
 520:Generated_Source\PSoC5/PWM.c ****             CY_SET_REG16(PWM_COMPARE1_LSB_PTR, (uint16)compare);
ARM GAS  C:\Users\NICKBU~1\AppData\Local\Temp\ccgaX3fy.s 			page 13


 521:Generated_Source\PSoC5/PWM.c ****         #else
 522:Generated_Source\PSoC5/PWM.c ****             CY_SET_REG16(PWM_COMPARE1_LSB_PTR, compare);
 165              		.loc 1 522 0
 166 0000 014B     		ldr	r3, .L17
 167 0002 1880     		strh	r0, [r3]	@ movhi
 168 0004 7047     		bx	lr
 169              	.L18:
 170 0006 00BF     		.align	2
 171              	.L17:
 172 0008 486A0040 		.word	1073769032
 173              		.cfi_endproc
 174              	.LFE8:
 175              		.size	PWM_WriteCompare, .-PWM_WriteCompare
 176              		.section	.text.PWM_WriteDeadTime,"ax",%progbits
 177              		.align	2
 178              		.global	PWM_WriteDeadTime
 179              		.thumb
 180              		.thumb_func
 181              		.type	PWM_WriteDeadTime, %function
 182              	PWM_WriteDeadTime:
 183              	.LFB9:
 523:Generated_Source\PSoC5/PWM.c ****         #endif /* (PWM_UsingFixedFunction) */
 524:Generated_Source\PSoC5/PWM.c **** 
 525:Generated_Source\PSoC5/PWM.c ****         #if (PWM_PWMMode == PWM__B_PWM__DITHER)
 526:Generated_Source\PSoC5/PWM.c ****             #if(PWM_UsingFixedFunction)
 527:Generated_Source\PSoC5/PWM.c ****                 CY_SET_REG16(PWM_COMPARE2_LSB_PTR, (uint16)(compare + 1u));
 528:Generated_Source\PSoC5/PWM.c ****             #else
 529:Generated_Source\PSoC5/PWM.c ****                 CY_SET_REG16(PWM_COMPARE2_LSB_PTR, (compare + 1u));
 530:Generated_Source\PSoC5/PWM.c ****             #endif /* (PWM_UsingFixedFunction) */
 531:Generated_Source\PSoC5/PWM.c ****         #endif /* (PWM_PWMMode == PWM__B_PWM__DITHER) */
 532:Generated_Source\PSoC5/PWM.c ****     }
 533:Generated_Source\PSoC5/PWM.c **** 
 534:Generated_Source\PSoC5/PWM.c **** 
 535:Generated_Source\PSoC5/PWM.c **** #else
 536:Generated_Source\PSoC5/PWM.c **** 
 537:Generated_Source\PSoC5/PWM.c **** 
 538:Generated_Source\PSoC5/PWM.c ****     /*******************************************************************************
 539:Generated_Source\PSoC5/PWM.c ****     * Function Name: PWM_WriteCompare1
 540:Generated_Source\PSoC5/PWM.c ****     ********************************************************************************
 541:Generated_Source\PSoC5/PWM.c ****     *
 542:Generated_Source\PSoC5/PWM.c ****     * Summary:
 543:Generated_Source\PSoC5/PWM.c ****     *  This funtion is used to change the compare1 value.  The compare output will
 544:Generated_Source\PSoC5/PWM.c ****     *  reflect the new value on the next UDB clock.  The compare output will be
 545:Generated_Source\PSoC5/PWM.c ****     *  driven high when the present counter value is less than or less than or
 546:Generated_Source\PSoC5/PWM.c ****     *  equal to the compare register, depending on the mode.
 547:Generated_Source\PSoC5/PWM.c ****     *
 548:Generated_Source\PSoC5/PWM.c ****     * Parameters:
 549:Generated_Source\PSoC5/PWM.c ****     *  compare:  New compare value.
 550:Generated_Source\PSoC5/PWM.c ****     *
 551:Generated_Source\PSoC5/PWM.c ****     * Return:
 552:Generated_Source\PSoC5/PWM.c ****     *  None
 553:Generated_Source\PSoC5/PWM.c ****     *
 554:Generated_Source\PSoC5/PWM.c ****     *******************************************************************************/
 555:Generated_Source\PSoC5/PWM.c ****     void PWM_WriteCompare1(uint16 compare) \
 556:Generated_Source\PSoC5/PWM.c ****                                         
 557:Generated_Source\PSoC5/PWM.c ****     {
 558:Generated_Source\PSoC5/PWM.c ****         #if(PWM_UsingFixedFunction)
ARM GAS  C:\Users\NICKBU~1\AppData\Local\Temp\ccgaX3fy.s 			page 14


 559:Generated_Source\PSoC5/PWM.c ****             CY_SET_REG16(PWM_COMPARE1_LSB_PTR, (uint16)compare);
 560:Generated_Source\PSoC5/PWM.c ****         #else
 561:Generated_Source\PSoC5/PWM.c ****             CY_SET_REG16(PWM_COMPARE1_LSB_PTR, compare);
 562:Generated_Source\PSoC5/PWM.c ****         #endif /* (PWM_UsingFixedFunction) */
 563:Generated_Source\PSoC5/PWM.c ****     }
 564:Generated_Source\PSoC5/PWM.c **** 
 565:Generated_Source\PSoC5/PWM.c **** 
 566:Generated_Source\PSoC5/PWM.c ****     /*******************************************************************************
 567:Generated_Source\PSoC5/PWM.c ****     * Function Name: PWM_WriteCompare2
 568:Generated_Source\PSoC5/PWM.c ****     ********************************************************************************
 569:Generated_Source\PSoC5/PWM.c ****     *
 570:Generated_Source\PSoC5/PWM.c ****     * Summary:
 571:Generated_Source\PSoC5/PWM.c ****     *  This funtion is used to change the compare value, for compare1 output.
 572:Generated_Source\PSoC5/PWM.c ****     *  The compare output will reflect the new value on the next UDB clock.
 573:Generated_Source\PSoC5/PWM.c ****     *  The compare output will be driven high when the present counter value is
 574:Generated_Source\PSoC5/PWM.c ****     *  less than or less than or equal to the compare register, depending on the
 575:Generated_Source\PSoC5/PWM.c ****     *  mode.
 576:Generated_Source\PSoC5/PWM.c ****     *
 577:Generated_Source\PSoC5/PWM.c ****     * Parameters:
 578:Generated_Source\PSoC5/PWM.c ****     *  compare:  New compare value.
 579:Generated_Source\PSoC5/PWM.c ****     *
 580:Generated_Source\PSoC5/PWM.c ****     * Return:
 581:Generated_Source\PSoC5/PWM.c ****     *  None
 582:Generated_Source\PSoC5/PWM.c ****     *
 583:Generated_Source\PSoC5/PWM.c ****     *******************************************************************************/
 584:Generated_Source\PSoC5/PWM.c ****     void PWM_WriteCompare2(uint16 compare) \
 585:Generated_Source\PSoC5/PWM.c ****                                         
 586:Generated_Source\PSoC5/PWM.c ****     {
 587:Generated_Source\PSoC5/PWM.c ****         #if(PWM_UsingFixedFunction)
 588:Generated_Source\PSoC5/PWM.c ****             CY_SET_REG16(PWM_COMPARE2_LSB_PTR, compare);
 589:Generated_Source\PSoC5/PWM.c ****         #else
 590:Generated_Source\PSoC5/PWM.c ****             CY_SET_REG16(PWM_COMPARE2_LSB_PTR, compare);
 591:Generated_Source\PSoC5/PWM.c ****         #endif /* (PWM_UsingFixedFunction) */
 592:Generated_Source\PSoC5/PWM.c ****     }
 593:Generated_Source\PSoC5/PWM.c **** #endif /* UseOneCompareMode */
 594:Generated_Source\PSoC5/PWM.c **** 
 595:Generated_Source\PSoC5/PWM.c **** #if (PWM_DeadBandUsed)
 596:Generated_Source\PSoC5/PWM.c **** 
 597:Generated_Source\PSoC5/PWM.c **** 
 598:Generated_Source\PSoC5/PWM.c ****     /*******************************************************************************
 599:Generated_Source\PSoC5/PWM.c ****     * Function Name: PWM_WriteDeadTime
 600:Generated_Source\PSoC5/PWM.c ****     ********************************************************************************
 601:Generated_Source\PSoC5/PWM.c ****     *
 602:Generated_Source\PSoC5/PWM.c ****     * Summary:
 603:Generated_Source\PSoC5/PWM.c ****     *  This function writes the dead-band counts to the corresponding register
 604:Generated_Source\PSoC5/PWM.c ****     *
 605:Generated_Source\PSoC5/PWM.c ****     * Parameters:
 606:Generated_Source\PSoC5/PWM.c ****     *  deadtime:  Number of counts for dead time
 607:Generated_Source\PSoC5/PWM.c ****     *
 608:Generated_Source\PSoC5/PWM.c ****     * Return:
 609:Generated_Source\PSoC5/PWM.c ****     *  None
 610:Generated_Source\PSoC5/PWM.c ****     *
 611:Generated_Source\PSoC5/PWM.c ****     *******************************************************************************/
 612:Generated_Source\PSoC5/PWM.c ****     void PWM_WriteDeadTime(uint8 deadtime) 
 613:Generated_Source\PSoC5/PWM.c ****     {
 184              		.loc 1 613 0
 185              		.cfi_startproc
ARM GAS  C:\Users\NICKBU~1\AppData\Local\Temp\ccgaX3fy.s 			page 15


 186              		@ args = 0, pretend = 0, frame = 0
 187              		@ frame_needed = 0, uses_anonymous_args = 0
 188              		@ link register save eliminated.
 189              	.LVL3:
 614:Generated_Source\PSoC5/PWM.c ****         /* If using the Dead Band 1-255 mode then just write the register */
 615:Generated_Source\PSoC5/PWM.c ****         #if(!PWM_DeadBand2_4)
 616:Generated_Source\PSoC5/PWM.c ****             CY_SET_REG8(PWM_DEADBAND_COUNT_PTR, deadtime);
 190              		.loc 1 616 0
 191 0000 014B     		ldr	r3, .L20
 192 0002 1870     		strb	r0, [r3]
 193 0004 7047     		bx	lr
 194              	.L21:
 195 0006 00BF     		.align	2
 196              	.L20:
 197 0008 26650040 		.word	1073767718
 198              		.cfi_endproc
 199              	.LFE9:
 200              		.size	PWM_WriteDeadTime, .-PWM_WriteDeadTime
 201              		.section	.text.PWM_ReadDeadTime,"ax",%progbits
 202              		.align	2
 203              		.global	PWM_ReadDeadTime
 204              		.thumb
 205              		.thumb_func
 206              		.type	PWM_ReadDeadTime, %function
 207              	PWM_ReadDeadTime:
 208              	.LFB10:
 617:Generated_Source\PSoC5/PWM.c ****         #else
 618:Generated_Source\PSoC5/PWM.c ****             /* Otherwise the data has to be masked and offset */
 619:Generated_Source\PSoC5/PWM.c ****             /* Clear existing data */
 620:Generated_Source\PSoC5/PWM.c ****             PWM_DEADBAND_COUNT &= ((uint8)(~PWM_DEADBAND_COUNT_MASK));
 621:Generated_Source\PSoC5/PWM.c **** 
 622:Generated_Source\PSoC5/PWM.c ****             /* Set new dead time */
 623:Generated_Source\PSoC5/PWM.c ****             #if(PWM_DEADBAND_COUNT_SHIFT)
 624:Generated_Source\PSoC5/PWM.c ****                 PWM_DEADBAND_COUNT |= ((uint8)((uint8)deadtime << PWM_DEADBAND_COUNT_SHIFT)) &
 625:Generated_Source\PSoC5/PWM.c ****                                                     PWM_DEADBAND_COUNT_MASK;
 626:Generated_Source\PSoC5/PWM.c ****             #else
 627:Generated_Source\PSoC5/PWM.c ****                 PWM_DEADBAND_COUNT |= deadtime & PWM_DEADBAND_COUNT_MASK;
 628:Generated_Source\PSoC5/PWM.c ****             #endif /* (PWM_DEADBAND_COUNT_SHIFT) */
 629:Generated_Source\PSoC5/PWM.c **** 
 630:Generated_Source\PSoC5/PWM.c ****         #endif /* (!PWM_DeadBand2_4) */
 631:Generated_Source\PSoC5/PWM.c ****     }
 632:Generated_Source\PSoC5/PWM.c **** 
 633:Generated_Source\PSoC5/PWM.c **** 
 634:Generated_Source\PSoC5/PWM.c ****     /*******************************************************************************
 635:Generated_Source\PSoC5/PWM.c ****     * Function Name: PWM_ReadDeadTime
 636:Generated_Source\PSoC5/PWM.c ****     ********************************************************************************
 637:Generated_Source\PSoC5/PWM.c ****     *
 638:Generated_Source\PSoC5/PWM.c ****     * Summary:
 639:Generated_Source\PSoC5/PWM.c ****     *  This function reads the dead-band counts from the corresponding register
 640:Generated_Source\PSoC5/PWM.c ****     *
 641:Generated_Source\PSoC5/PWM.c ****     * Parameters:
 642:Generated_Source\PSoC5/PWM.c ****     *  None
 643:Generated_Source\PSoC5/PWM.c ****     *
 644:Generated_Source\PSoC5/PWM.c ****     * Return:
 645:Generated_Source\PSoC5/PWM.c ****     *  Dead Band Counts
 646:Generated_Source\PSoC5/PWM.c ****     *
 647:Generated_Source\PSoC5/PWM.c ****     *******************************************************************************/
ARM GAS  C:\Users\NICKBU~1\AppData\Local\Temp\ccgaX3fy.s 			page 16


 648:Generated_Source\PSoC5/PWM.c ****     uint8 PWM_ReadDeadTime(void) 
 649:Generated_Source\PSoC5/PWM.c ****     {
 209              		.loc 1 649 0
 210              		.cfi_startproc
 211              		@ args = 0, pretend = 0, frame = 0
 212              		@ frame_needed = 0, uses_anonymous_args = 0
 213              		@ link register save eliminated.
 650:Generated_Source\PSoC5/PWM.c ****         /* If using the Dead Band 1-255 mode then just read the register */
 651:Generated_Source\PSoC5/PWM.c ****         #if(!PWM_DeadBand2_4)
 652:Generated_Source\PSoC5/PWM.c ****             return (CY_GET_REG8(PWM_DEADBAND_COUNT_PTR));
 214              		.loc 1 652 0
 215 0000 014B     		ldr	r3, .L23
 216 0002 1878     		ldrb	r0, [r3]	@ zero_extendqisi2
 653:Generated_Source\PSoC5/PWM.c ****         #else
 654:Generated_Source\PSoC5/PWM.c **** 
 655:Generated_Source\PSoC5/PWM.c ****             /* Otherwise the data has to be masked and offset */
 656:Generated_Source\PSoC5/PWM.c ****             #if(PWM_DEADBAND_COUNT_SHIFT)
 657:Generated_Source\PSoC5/PWM.c ****                 return ((uint8)(((uint8)(PWM_DEADBAND_COUNT & PWM_DEADBAND_COUNT_MASK)) >>
 658:Generated_Source\PSoC5/PWM.c ****                                                                            PWM_DEADBAND_COUNT_SHIFT
 659:Generated_Source\PSoC5/PWM.c ****             #else
 660:Generated_Source\PSoC5/PWM.c ****                 return (PWM_DEADBAND_COUNT & PWM_DEADBAND_COUNT_MASK);
 661:Generated_Source\PSoC5/PWM.c ****             #endif /* (PWM_DEADBAND_COUNT_SHIFT) */
 662:Generated_Source\PSoC5/PWM.c ****         #endif /* (!PWM_DeadBand2_4) */
 663:Generated_Source\PSoC5/PWM.c ****     }
 217              		.loc 1 663 0
 218 0004 7047     		bx	lr
 219              	.L24:
 220 0006 00BF     		.align	2
 221              	.L23:
 222 0008 26650040 		.word	1073767718
 223              		.cfi_endproc
 224              	.LFE10:
 225              		.size	PWM_ReadDeadTime, .-PWM_ReadDeadTime
 226              		.section	.text.PWM_SetInterruptMode,"ax",%progbits
 227              		.align	2
 228              		.global	PWM_SetInterruptMode
 229              		.thumb
 230              		.thumb_func
 231              		.type	PWM_SetInterruptMode, %function
 232              	PWM_SetInterruptMode:
 233              	.LFB11:
 664:Generated_Source\PSoC5/PWM.c **** #endif /* DeadBandUsed */
 665:Generated_Source\PSoC5/PWM.c **** 
 666:Generated_Source\PSoC5/PWM.c **** #if (PWM_UseStatus || PWM_UsingFixedFunction)
 667:Generated_Source\PSoC5/PWM.c **** 
 668:Generated_Source\PSoC5/PWM.c **** 
 669:Generated_Source\PSoC5/PWM.c ****     /*******************************************************************************
 670:Generated_Source\PSoC5/PWM.c ****     * Function Name: PWM_SetInterruptMode
 671:Generated_Source\PSoC5/PWM.c ****     ********************************************************************************
 672:Generated_Source\PSoC5/PWM.c ****     *
 673:Generated_Source\PSoC5/PWM.c ****     * Summary:
 674:Generated_Source\PSoC5/PWM.c ****     *  This function configures the interrupts mask control of theinterrupt
 675:Generated_Source\PSoC5/PWM.c ****     *  source status register.
 676:Generated_Source\PSoC5/PWM.c ****     *
 677:Generated_Source\PSoC5/PWM.c ****     * Parameters:
 678:Generated_Source\PSoC5/PWM.c ****     *  uint8 interruptMode: Bit field containing the interrupt sources enabled
 679:Generated_Source\PSoC5/PWM.c ****     *
ARM GAS  C:\Users\NICKBU~1\AppData\Local\Temp\ccgaX3fy.s 			page 17


 680:Generated_Source\PSoC5/PWM.c ****     * Return:
 681:Generated_Source\PSoC5/PWM.c ****     *  None
 682:Generated_Source\PSoC5/PWM.c ****     *
 683:Generated_Source\PSoC5/PWM.c ****     *******************************************************************************/
 684:Generated_Source\PSoC5/PWM.c ****     void PWM_SetInterruptMode(uint8 interruptMode) 
 685:Generated_Source\PSoC5/PWM.c ****     {
 234              		.loc 1 685 0
 235              		.cfi_startproc
 236              		@ args = 0, pretend = 0, frame = 0
 237              		@ frame_needed = 0, uses_anonymous_args = 0
 238              		@ link register save eliminated.
 239              	.LVL4:
 686:Generated_Source\PSoC5/PWM.c ****         CY_SET_REG8(PWM_STATUS_MASK_PTR, interruptMode);
 240              		.loc 1 686 0
 241 0000 014B     		ldr	r3, .L26
 242 0002 1870     		strb	r0, [r3]
 243 0004 7047     		bx	lr
 244              	.L27:
 245 0006 00BF     		.align	2
 246              	.L26:
 247 0008 85650040 		.word	1073767813
 248              		.cfi_endproc
 249              	.LFE11:
 250              		.size	PWM_SetInterruptMode, .-PWM_SetInterruptMode
 251              		.section	.text.PWM_ReadStatusRegister,"ax",%progbits
 252              		.align	2
 253              		.global	PWM_ReadStatusRegister
 254              		.thumb
 255              		.thumb_func
 256              		.type	PWM_ReadStatusRegister, %function
 257              	PWM_ReadStatusRegister:
 258              	.LFB12:
 687:Generated_Source\PSoC5/PWM.c ****     }
 688:Generated_Source\PSoC5/PWM.c **** 
 689:Generated_Source\PSoC5/PWM.c **** 
 690:Generated_Source\PSoC5/PWM.c ****     /*******************************************************************************
 691:Generated_Source\PSoC5/PWM.c ****     * Function Name: PWM_ReadStatusRegister
 692:Generated_Source\PSoC5/PWM.c ****     ********************************************************************************
 693:Generated_Source\PSoC5/PWM.c ****     *
 694:Generated_Source\PSoC5/PWM.c ****     * Summary:
 695:Generated_Source\PSoC5/PWM.c ****     *  This function returns the current state of the status register.
 696:Generated_Source\PSoC5/PWM.c ****     *
 697:Generated_Source\PSoC5/PWM.c ****     * Parameters:
 698:Generated_Source\PSoC5/PWM.c ****     *  None
 699:Generated_Source\PSoC5/PWM.c ****     *
 700:Generated_Source\PSoC5/PWM.c ****     * Return:
 701:Generated_Source\PSoC5/PWM.c ****     *  uint8 : Current status register value. The status register bits are:
 702:Generated_Source\PSoC5/PWM.c ****     *  [7:6] : Unused(0)
 703:Generated_Source\PSoC5/PWM.c ****     *  [5]   : Kill event output
 704:Generated_Source\PSoC5/PWM.c ****     *  [4]   : FIFO not empty
 705:Generated_Source\PSoC5/PWM.c ****     *  [3]   : FIFO full
 706:Generated_Source\PSoC5/PWM.c ****     *  [2]   : Terminal count
 707:Generated_Source\PSoC5/PWM.c ****     *  [1]   : Compare output 2
 708:Generated_Source\PSoC5/PWM.c ****     *  [0]   : Compare output 1
 709:Generated_Source\PSoC5/PWM.c ****     *
 710:Generated_Source\PSoC5/PWM.c ****     *******************************************************************************/
 711:Generated_Source\PSoC5/PWM.c ****     uint8 PWM_ReadStatusRegister(void) 
ARM GAS  C:\Users\NICKBU~1\AppData\Local\Temp\ccgaX3fy.s 			page 18


 712:Generated_Source\PSoC5/PWM.c ****     {
 259              		.loc 1 712 0
 260              		.cfi_startproc
 261              		@ args = 0, pretend = 0, frame = 0
 262              		@ frame_needed = 0, uses_anonymous_args = 0
 263              		@ link register save eliminated.
 713:Generated_Source\PSoC5/PWM.c ****         return (CY_GET_REG8(PWM_STATUS_PTR));
 264              		.loc 1 713 0
 265 0000 014B     		ldr	r3, .L29
 266 0002 1878     		ldrb	r0, [r3]	@ zero_extendqisi2
 714:Generated_Source\PSoC5/PWM.c ****     }
 267              		.loc 1 714 0
 268 0004 7047     		bx	lr
 269              	.L30:
 270 0006 00BF     		.align	2
 271              	.L29:
 272 0008 65650040 		.word	1073767781
 273              		.cfi_endproc
 274              	.LFE12:
 275              		.size	PWM_ReadStatusRegister, .-PWM_ReadStatusRegister
 276              		.section	.text.PWM_ReadControlRegister,"ax",%progbits
 277              		.align	2
 278              		.global	PWM_ReadControlRegister
 279              		.thumb
 280              		.thumb_func
 281              		.type	PWM_ReadControlRegister, %function
 282              	PWM_ReadControlRegister:
 283              	.LFB13:
 715:Generated_Source\PSoC5/PWM.c **** 
 716:Generated_Source\PSoC5/PWM.c **** #endif /* (PWM_UseStatus || PWM_UsingFixedFunction) */
 717:Generated_Source\PSoC5/PWM.c **** 
 718:Generated_Source\PSoC5/PWM.c **** 
 719:Generated_Source\PSoC5/PWM.c **** #if (PWM_UseControl)
 720:Generated_Source\PSoC5/PWM.c **** 
 721:Generated_Source\PSoC5/PWM.c **** 
 722:Generated_Source\PSoC5/PWM.c ****     /*******************************************************************************
 723:Generated_Source\PSoC5/PWM.c ****     * Function Name: PWM_ReadControlRegister
 724:Generated_Source\PSoC5/PWM.c ****     ********************************************************************************
 725:Generated_Source\PSoC5/PWM.c ****     *
 726:Generated_Source\PSoC5/PWM.c ****     * Summary:
 727:Generated_Source\PSoC5/PWM.c ****     *  Returns the current state of the control register. This API is available
 728:Generated_Source\PSoC5/PWM.c ****     *  only if the control register is not removed.
 729:Generated_Source\PSoC5/PWM.c ****     *
 730:Generated_Source\PSoC5/PWM.c ****     * Parameters:
 731:Generated_Source\PSoC5/PWM.c ****     *  None
 732:Generated_Source\PSoC5/PWM.c ****     *
 733:Generated_Source\PSoC5/PWM.c ****     * Return:
 734:Generated_Source\PSoC5/PWM.c ****     *  uint8 : Current control register value
 735:Generated_Source\PSoC5/PWM.c ****     *
 736:Generated_Source\PSoC5/PWM.c ****     *******************************************************************************/
 737:Generated_Source\PSoC5/PWM.c ****     uint8 PWM_ReadControlRegister(void) 
 738:Generated_Source\PSoC5/PWM.c ****     {
 284              		.loc 1 738 0
 285              		.cfi_startproc
 286              		@ args = 0, pretend = 0, frame = 0
 287              		@ frame_needed = 0, uses_anonymous_args = 0
 288              		@ link register save eliminated.
ARM GAS  C:\Users\NICKBU~1\AppData\Local\Temp\ccgaX3fy.s 			page 19


 739:Generated_Source\PSoC5/PWM.c ****         uint8 result;
 740:Generated_Source\PSoC5/PWM.c **** 
 741:Generated_Source\PSoC5/PWM.c ****         result = CY_GET_REG8(PWM_CONTROL_PTR);
 289              		.loc 1 741 0
 290 0000 014B     		ldr	r3, .L32
 291 0002 1878     		ldrb	r0, [r3]	@ zero_extendqisi2
 292              	.LVL5:
 742:Generated_Source\PSoC5/PWM.c ****         return (result);
 743:Generated_Source\PSoC5/PWM.c ****     }
 293              		.loc 1 743 0
 294 0004 7047     		bx	lr
 295              	.L33:
 296 0006 00BF     		.align	2
 297              	.L32:
 298 0008 76650040 		.word	1073767798
 299              		.cfi_endproc
 300              	.LFE13:
 301              		.size	PWM_ReadControlRegister, .-PWM_ReadControlRegister
 302              		.section	.text.PWM_WriteControlRegister,"ax",%progbits
 303              		.align	2
 304              		.global	PWM_WriteControlRegister
 305              		.thumb
 306              		.thumb_func
 307              		.type	PWM_WriteControlRegister, %function
 308              	PWM_WriteControlRegister:
 309              	.LFB14:
 744:Generated_Source\PSoC5/PWM.c **** 
 745:Generated_Source\PSoC5/PWM.c **** 
 746:Generated_Source\PSoC5/PWM.c ****     /*******************************************************************************
 747:Generated_Source\PSoC5/PWM.c ****     * Function Name: PWM_WriteControlRegister
 748:Generated_Source\PSoC5/PWM.c ****     ********************************************************************************
 749:Generated_Source\PSoC5/PWM.c ****     *
 750:Generated_Source\PSoC5/PWM.c ****     * Summary:
 751:Generated_Source\PSoC5/PWM.c ****     *  Sets the bit field of the control register. This API is available only if
 752:Generated_Source\PSoC5/PWM.c ****     *  the control register is not removed.
 753:Generated_Source\PSoC5/PWM.c ****     *
 754:Generated_Source\PSoC5/PWM.c ****     * Parameters:
 755:Generated_Source\PSoC5/PWM.c ****     *  uint8 control: Control register bit field, The status register bits are:
 756:Generated_Source\PSoC5/PWM.c ****     *  [7]   : PWM Enable
 757:Generated_Source\PSoC5/PWM.c ****     *  [6]   : Reset
 758:Generated_Source\PSoC5/PWM.c ****     *  [5:3] : Compare Mode2
 759:Generated_Source\PSoC5/PWM.c ****     *  [2:0] : Compare Mode2
 760:Generated_Source\PSoC5/PWM.c ****     *
 761:Generated_Source\PSoC5/PWM.c ****     * Return:
 762:Generated_Source\PSoC5/PWM.c ****     *  None
 763:Generated_Source\PSoC5/PWM.c ****     *
 764:Generated_Source\PSoC5/PWM.c ****     *******************************************************************************/
 765:Generated_Source\PSoC5/PWM.c ****     void PWM_WriteControlRegister(uint8 control) 
 766:Generated_Source\PSoC5/PWM.c ****     {
 310              		.loc 1 766 0
 311              		.cfi_startproc
 312              		@ args = 0, pretend = 0, frame = 0
 313              		@ frame_needed = 0, uses_anonymous_args = 0
 314              		@ link register save eliminated.
 315              	.LVL6:
 767:Generated_Source\PSoC5/PWM.c ****         CY_SET_REG8(PWM_CONTROL_PTR, control);
 316              		.loc 1 767 0
ARM GAS  C:\Users\NICKBU~1\AppData\Local\Temp\ccgaX3fy.s 			page 20


 317 0000 014B     		ldr	r3, .L35
 318 0002 1870     		strb	r0, [r3]
 319 0004 7047     		bx	lr
 320              	.L36:
 321 0006 00BF     		.align	2
 322              	.L35:
 323 0008 76650040 		.word	1073767798
 324              		.cfi_endproc
 325              	.LFE14:
 326              		.size	PWM_WriteControlRegister, .-PWM_WriteControlRegister
 327              		.section	.text.PWM_ReadCapture,"ax",%progbits
 328              		.align	2
 329              		.global	PWM_ReadCapture
 330              		.thumb
 331              		.thumb_func
 332              		.type	PWM_ReadCapture, %function
 333              	PWM_ReadCapture:
 334              	.LFB15:
 768:Generated_Source\PSoC5/PWM.c ****     }
 769:Generated_Source\PSoC5/PWM.c **** 
 770:Generated_Source\PSoC5/PWM.c **** #endif /* (PWM_UseControl) */
 771:Generated_Source\PSoC5/PWM.c **** 
 772:Generated_Source\PSoC5/PWM.c **** 
 773:Generated_Source\PSoC5/PWM.c **** #if (!PWM_UsingFixedFunction)
 774:Generated_Source\PSoC5/PWM.c **** 
 775:Generated_Source\PSoC5/PWM.c **** 
 776:Generated_Source\PSoC5/PWM.c ****     /*******************************************************************************
 777:Generated_Source\PSoC5/PWM.c ****     * Function Name: PWM_ReadCapture
 778:Generated_Source\PSoC5/PWM.c ****     ********************************************************************************
 779:Generated_Source\PSoC5/PWM.c ****     *
 780:Generated_Source\PSoC5/PWM.c ****     * Summary:
 781:Generated_Source\PSoC5/PWM.c ****     *  Reads the capture value from the capture FIFO.
 782:Generated_Source\PSoC5/PWM.c ****     *
 783:Generated_Source\PSoC5/PWM.c ****     * Parameters:
 784:Generated_Source\PSoC5/PWM.c ****     *  None
 785:Generated_Source\PSoC5/PWM.c ****     *
 786:Generated_Source\PSoC5/PWM.c ****     * Return:
 787:Generated_Source\PSoC5/PWM.c ****     *  uint8/uint16: The current capture value
 788:Generated_Source\PSoC5/PWM.c ****     *
 789:Generated_Source\PSoC5/PWM.c ****     *******************************************************************************/
 790:Generated_Source\PSoC5/PWM.c ****     uint16 PWM_ReadCapture(void) 
 791:Generated_Source\PSoC5/PWM.c ****     {
 335              		.loc 1 791 0
 336              		.cfi_startproc
 337              		@ args = 0, pretend = 0, frame = 0
 338              		@ frame_needed = 0, uses_anonymous_args = 0
 339              		@ link register save eliminated.
 792:Generated_Source\PSoC5/PWM.c ****         return (CY_GET_REG16(PWM_CAPTURE_LSB_PTR));
 340              		.loc 1 792 0
 341 0000 014B     		ldr	r3, .L38
 342 0002 1888     		ldrh	r0, [r3]
 793:Generated_Source\PSoC5/PWM.c ****     }
 343              		.loc 1 793 0
 344 0004 80B2     		uxth	r0, r0
 345 0006 7047     		bx	lr
 346              	.L39:
 347              		.align	2
ARM GAS  C:\Users\NICKBU~1\AppData\Local\Temp\ccgaX3fy.s 			page 21


 348              	.L38:
 349 0008 A86A0040 		.word	1073769128
 350              		.cfi_endproc
 351              	.LFE15:
 352              		.size	PWM_ReadCapture, .-PWM_ReadCapture
 353              		.section	.text.PWM_ClearFIFO,"ax",%progbits
 354              		.align	2
 355              		.global	PWM_ClearFIFO
 356              		.thumb
 357              		.thumb_func
 358              		.type	PWM_ClearFIFO, %function
 359              	PWM_ClearFIFO:
 360              	.LFB6:
 454:Generated_Source\PSoC5/PWM.c ****             while(0u != (PWM_ReadStatusRegister() & PWM_STATUS_FIFONEMPTY))
 361              		.loc 1 454 0
 362              		.cfi_startproc
 363              		@ args = 0, pretend = 0, frame = 0
 364              		@ frame_needed = 0, uses_anonymous_args = 0
 365 0000 08B5     		push	{r3, lr}
 366              		.cfi_def_cfa_offset 8
 367              		.cfi_offset 3, -8
 368              		.cfi_offset 14, -4
 455:Generated_Source\PSoC5/PWM.c ****             {
 369              		.loc 1 455 0
 370 0002 01E0     		b	.L41
 371              	.L42:
 457:Generated_Source\PSoC5/PWM.c ****             }
 372              		.loc 1 457 0
 373 0004 FFF7FEFF 		bl	PWM_ReadCapture
 374              	.LVL7:
 375              	.L41:
 455:Generated_Source\PSoC5/PWM.c ****             {
 376              		.loc 1 455 0
 377 0008 FFF7FEFF 		bl	PWM_ReadStatusRegister
 378              	.LVL8:
 379 000c 10F0100F 		tst	r0, #16
 380 0010 F8D1     		bne	.L42
 459:Generated_Source\PSoC5/PWM.c **** 
 381              		.loc 1 459 0
 382 0012 08BD     		pop	{r3, pc}
 383              		.cfi_endproc
 384              	.LFE6:
 385              		.size	PWM_ClearFIFO, .-PWM_ClearFIFO
 386              		.section	.text.PWM_Init,"ax",%progbits
 387              		.align	2
 388              		.global	PWM_Init
 389              		.thumb
 390              		.thumb_func
 391              		.type	PWM_Init, %function
 392              	PWM_Init:
 393              	.LFB1:
  85:Generated_Source\PSoC5/PWM.c ****     #if (PWM_UsingFixedFunction || PWM_UseControl)
 394              		.loc 1 85 0
 395              		.cfi_startproc
 396              		@ args = 0, pretend = 0, frame = 0
 397              		@ frame_needed = 0, uses_anonymous_args = 0
 398 0000 10B5     		push	{r4, lr}
ARM GAS  C:\Users\NICKBU~1\AppData\Local\Temp\ccgaX3fy.s 			page 22


 399              		.cfi_def_cfa_offset 8
 400              		.cfi_offset 4, -8
 401              		.cfi_offset 14, -4
 117:Generated_Source\PSoC5/PWM.c ****                 ((uint8)(~PWM_CTRL_CMPMODE1_MASK));
 402              		.loc 1 117 0
 403 0002 164A     		ldr	r2, .L46
 404 0004 1378     		ldrb	r3, [r2]	@ zero_extendqisi2
 405 0006 03F0C003 		and	r3, r3, #192
 406              	.LVL9:
 119:Generated_Source\PSoC5/PWM.c ****                                    PWM_DEFAULT_COMPARE1_MODE;
 407              		.loc 1 119 0
 408 000a 43F01903 		orr	r3, r3, #25
 409              	.LVL10:
 410 000e 1370     		strb	r3, [r2]
 129:Generated_Source\PSoC5/PWM.c ****             PWM_AUX_CONTROLDP1 |= (PWM_AUX_CTRL_FIFO0_CLR);
 411              		.loc 1 129 0
 412 0010 1E32     		adds	r2, r2, #30
 413 0012 1378     		ldrb	r3, [r2]	@ zero_extendqisi2
 414 0014 43F00103 		orr	r3, r3, #1
 415 0018 1370     		strb	r3, [r2]
 130:Generated_Source\PSoC5/PWM.c ****         #endif /* (PWM_Resolution == 8) */
 416              		.loc 1 130 0
 417 001a 114C     		ldr	r4, .L46+4
 418 001c 2378     		ldrb	r3, [r4]	@ zero_extendqisi2
 419 001e 43F00103 		orr	r3, r3, #1
 420 0022 2370     		strb	r3, [r4]
 133:Generated_Source\PSoC5/PWM.c ****     #endif /* (!PWM_UsingFixedFunction) */
 421              		.loc 1 133 0
 422 0024 4FF4C870 		mov	r0, #400
 423 0028 FFF7FEFF 		bl	PWM_WriteCounter
 424              	.LVL11:
 136:Generated_Source\PSoC5/PWM.c **** 
 425              		.loc 1 136 0
 426 002c 4FF4C870 		mov	r0, #400
 427 0030 FFF7FEFF 		bl	PWM_WritePeriod
 428              	.LVL12:
 139:Generated_Source\PSoC5/PWM.c ****         #else
 429              		.loc 1 139 0
 430 0034 C820     		movs	r0, #200
 431 0036 FFF7FEFF 		bl	PWM_WriteCompare
 432              	.LVL13:
 150:Generated_Source\PSoC5/PWM.c ****         #endif /* (PWM_DeadBandUsed) */
 433              		.loc 1 150 0
 434 003a 0920     		movs	r0, #9
 435 003c FFF7FEFF 		bl	PWM_WriteDeadTime
 436              	.LVL14:
 154:Generated_Source\PSoC5/PWM.c ****     #endif /* (PWM_UseStatus || PWM_UsingFixedFunction) */
 437              		.loc 1 154 0
 438 0040 0020     		movs	r0, #0
 439 0042 FFF7FEFF 		bl	PWM_SetInterruptMode
 440              	.LVL15:
 167:Generated_Source\PSoC5/PWM.c ****             /* Use the interrupt output of the status register for IRQ output */
 441              		.loc 1 167 0
 442 0046 FFF7FEFF 		bl	CyEnterCriticalSection
 443              	.LVL16:
 169:Generated_Source\PSoC5/PWM.c **** 
 444              		.loc 1 169 0
ARM GAS  C:\Users\NICKBU~1\AppData\Local\Temp\ccgaX3fy.s 			page 23


 445 004a 2378     		ldrb	r3, [r4]	@ zero_extendqisi2
 446 004c 43F01003 		orr	r3, r3, #16
 447 0050 2370     		strb	r3, [r4]
 172:Generated_Source\PSoC5/PWM.c **** 
 448              		.loc 1 172 0
 449 0052 FFF7FEFF 		bl	CyExitCriticalSection
 450              	.LVL17:
 176:Generated_Source\PSoC5/PWM.c ****         #endif /* (PWM_UseStatus) */
 451              		.loc 1 176 0
 452 0056 FFF7FEFF 		bl	PWM_ClearFIFO
 453              	.LVL18:
 454 005a 10BD     		pop	{r4, pc}
 455              	.L47:
 456              		.align	2
 457              	.L46:
 458 005c 76650040 		.word	1073767798
 459 0060 95650040 		.word	1073767829
 460              		.cfi_endproc
 461              	.LFE1:
 462              		.size	PWM_Init, .-PWM_Init
 463              		.section	.text.PWM_Start,"ax",%progbits
 464              		.align	2
 465              		.global	PWM_Start
 466              		.thumb
 467              		.thumb_func
 468              		.type	PWM_Start, %function
 469              	PWM_Start:
 470              	.LFB0:
  56:Generated_Source\PSoC5/PWM.c ****     /* If not Initialized then initialize all required hardware and software */
 471              		.loc 1 56 0
 472              		.cfi_startproc
 473              		@ args = 0, pretend = 0, frame = 0
 474              		@ frame_needed = 0, uses_anonymous_args = 0
 475 0000 08B5     		push	{r3, lr}
 476              		.cfi_def_cfa_offset 8
 477              		.cfi_offset 3, -8
 478              		.cfi_offset 14, -4
  58:Generated_Source\PSoC5/PWM.c ****     {
 479              		.loc 1 58 0
 480 0002 054B     		ldr	r3, .L51
 481 0004 1B78     		ldrb	r3, [r3]	@ zero_extendqisi2
 482 0006 23B9     		cbnz	r3, .L49
  60:Generated_Source\PSoC5/PWM.c ****         PWM_initVar = 1u;
 483              		.loc 1 60 0
 484 0008 FFF7FEFF 		bl	PWM_Init
 485              	.LVL19:
  61:Generated_Source\PSoC5/PWM.c ****     }
 486              		.loc 1 61 0
 487 000c 0122     		movs	r2, #1
 488 000e 024B     		ldr	r3, .L51
 489 0010 1A70     		strb	r2, [r3]
 490              	.L49:
  63:Generated_Source\PSoC5/PWM.c **** 
 491              		.loc 1 63 0
 492 0012 FFF7FEFF 		bl	PWM_Enable
 493              	.LVL20:
 494 0016 08BD     		pop	{r3, pc}
ARM GAS  C:\Users\NICKBU~1\AppData\Local\Temp\ccgaX3fy.s 			page 24


 495              	.L52:
 496              		.align	2
 497              	.L51:
 498 0018 00000000 		.word	.LANCHOR0
 499              		.cfi_endproc
 500              	.LFE0:
 501              		.size	PWM_Start, .-PWM_Start
 502              		.section	.text.PWM_ReadCompare,"ax",%progbits
 503              		.align	2
 504              		.global	PWM_ReadCompare
 505              		.thumb
 506              		.thumb_func
 507              		.type	PWM_ReadCompare, %function
 508              	PWM_ReadCompare:
 509              	.LFB16:
 794:Generated_Source\PSoC5/PWM.c **** 
 795:Generated_Source\PSoC5/PWM.c **** #endif /* (!PWM_UsingFixedFunction) */
 796:Generated_Source\PSoC5/PWM.c **** 
 797:Generated_Source\PSoC5/PWM.c **** 
 798:Generated_Source\PSoC5/PWM.c **** #if (PWM_UseOneCompareMode)
 799:Generated_Source\PSoC5/PWM.c **** 
 800:Generated_Source\PSoC5/PWM.c **** 
 801:Generated_Source\PSoC5/PWM.c ****     /*******************************************************************************
 802:Generated_Source\PSoC5/PWM.c ****     * Function Name: PWM_ReadCompare
 803:Generated_Source\PSoC5/PWM.c ****     ********************************************************************************
 804:Generated_Source\PSoC5/PWM.c ****     *
 805:Generated_Source\PSoC5/PWM.c ****     * Summary:
 806:Generated_Source\PSoC5/PWM.c ****     *  Reads the compare value for the compare output when the PWM Mode parameter is
 807:Generated_Source\PSoC5/PWM.c ****     *  set to Dither mode, Center Aligned mode, or One Output mode.
 808:Generated_Source\PSoC5/PWM.c ****     *
 809:Generated_Source\PSoC5/PWM.c ****     * Parameters:
 810:Generated_Source\PSoC5/PWM.c ****     *  None
 811:Generated_Source\PSoC5/PWM.c ****     *
 812:Generated_Source\PSoC5/PWM.c ****     * Return:
 813:Generated_Source\PSoC5/PWM.c ****     *  uint8/uint16: Current compare value
 814:Generated_Source\PSoC5/PWM.c ****     *
 815:Generated_Source\PSoC5/PWM.c ****     *******************************************************************************/
 816:Generated_Source\PSoC5/PWM.c ****     uint16 PWM_ReadCompare(void) 
 817:Generated_Source\PSoC5/PWM.c ****     {
 510              		.loc 1 817 0
 511              		.cfi_startproc
 512              		@ args = 0, pretend = 0, frame = 0
 513              		@ frame_needed = 0, uses_anonymous_args = 0
 514              		@ link register save eliminated.
 818:Generated_Source\PSoC5/PWM.c ****         #if(PWM_UsingFixedFunction)
 819:Generated_Source\PSoC5/PWM.c ****             return ((uint16)CY_GET_REG16(PWM_COMPARE1_LSB_PTR));
 820:Generated_Source\PSoC5/PWM.c ****         #else
 821:Generated_Source\PSoC5/PWM.c ****             return (CY_GET_REG16(PWM_COMPARE1_LSB_PTR));
 515              		.loc 1 821 0
 516 0000 014B     		ldr	r3, .L54
 517 0002 1888     		ldrh	r0, [r3]
 822:Generated_Source\PSoC5/PWM.c ****         #endif /* (PWM_UsingFixedFunction) */
 823:Generated_Source\PSoC5/PWM.c ****     }
 518              		.loc 1 823 0
 519 0004 80B2     		uxth	r0, r0
 520 0006 7047     		bx	lr
 521              	.L55:
ARM GAS  C:\Users\NICKBU~1\AppData\Local\Temp\ccgaX3fy.s 			page 25


 522              		.align	2
 523              	.L54:
 524 0008 486A0040 		.word	1073769032
 525              		.cfi_endproc
 526              	.LFE16:
 527              		.size	PWM_ReadCompare, .-PWM_ReadCompare
 528              		.section	.text.PWM_ReadPeriod,"ax",%progbits
 529              		.align	2
 530              		.global	PWM_ReadPeriod
 531              		.thumb
 532              		.thumb_func
 533              		.type	PWM_ReadPeriod, %function
 534              	PWM_ReadPeriod:
 535              	.LFB17:
 824:Generated_Source\PSoC5/PWM.c **** 
 825:Generated_Source\PSoC5/PWM.c **** #else
 826:Generated_Source\PSoC5/PWM.c **** 
 827:Generated_Source\PSoC5/PWM.c **** 
 828:Generated_Source\PSoC5/PWM.c ****     /*******************************************************************************
 829:Generated_Source\PSoC5/PWM.c ****     * Function Name: PWM_ReadCompare1
 830:Generated_Source\PSoC5/PWM.c ****     ********************************************************************************
 831:Generated_Source\PSoC5/PWM.c ****     *
 832:Generated_Source\PSoC5/PWM.c ****     * Summary:
 833:Generated_Source\PSoC5/PWM.c ****     *  Reads the compare value for the compare1 output.
 834:Generated_Source\PSoC5/PWM.c ****     *
 835:Generated_Source\PSoC5/PWM.c ****     * Parameters:
 836:Generated_Source\PSoC5/PWM.c ****     *  None
 837:Generated_Source\PSoC5/PWM.c ****     *
 838:Generated_Source\PSoC5/PWM.c ****     * Return:
 839:Generated_Source\PSoC5/PWM.c ****     *  uint8/uint16: Current compare value.
 840:Generated_Source\PSoC5/PWM.c ****     *
 841:Generated_Source\PSoC5/PWM.c ****     *******************************************************************************/
 842:Generated_Source\PSoC5/PWM.c ****     uint16 PWM_ReadCompare1(void) 
 843:Generated_Source\PSoC5/PWM.c ****     {
 844:Generated_Source\PSoC5/PWM.c ****         return (CY_GET_REG16(PWM_COMPARE1_LSB_PTR));
 845:Generated_Source\PSoC5/PWM.c ****     }
 846:Generated_Source\PSoC5/PWM.c **** 
 847:Generated_Source\PSoC5/PWM.c **** 
 848:Generated_Source\PSoC5/PWM.c ****     /*******************************************************************************
 849:Generated_Source\PSoC5/PWM.c ****     * Function Name: PWM_ReadCompare2
 850:Generated_Source\PSoC5/PWM.c ****     ********************************************************************************
 851:Generated_Source\PSoC5/PWM.c ****     *
 852:Generated_Source\PSoC5/PWM.c ****     * Summary:
 853:Generated_Source\PSoC5/PWM.c ****     *  Reads the compare value for the compare2 output.
 854:Generated_Source\PSoC5/PWM.c ****     *
 855:Generated_Source\PSoC5/PWM.c ****     * Parameters:
 856:Generated_Source\PSoC5/PWM.c ****     *  None
 857:Generated_Source\PSoC5/PWM.c ****     *
 858:Generated_Source\PSoC5/PWM.c ****     * Return:
 859:Generated_Source\PSoC5/PWM.c ****     *  uint8/uint16: Current compare value.
 860:Generated_Source\PSoC5/PWM.c ****     *
 861:Generated_Source\PSoC5/PWM.c ****     *******************************************************************************/
 862:Generated_Source\PSoC5/PWM.c ****     uint16 PWM_ReadCompare2(void) 
 863:Generated_Source\PSoC5/PWM.c ****     {
 864:Generated_Source\PSoC5/PWM.c ****         return (CY_GET_REG16(PWM_COMPARE2_LSB_PTR));
 865:Generated_Source\PSoC5/PWM.c ****     }
 866:Generated_Source\PSoC5/PWM.c **** 
ARM GAS  C:\Users\NICKBU~1\AppData\Local\Temp\ccgaX3fy.s 			page 26


 867:Generated_Source\PSoC5/PWM.c **** #endif /* (PWM_UseOneCompareMode) */
 868:Generated_Source\PSoC5/PWM.c **** 
 869:Generated_Source\PSoC5/PWM.c **** 
 870:Generated_Source\PSoC5/PWM.c **** /*******************************************************************************
 871:Generated_Source\PSoC5/PWM.c **** * Function Name: PWM_ReadPeriod
 872:Generated_Source\PSoC5/PWM.c **** ********************************************************************************
 873:Generated_Source\PSoC5/PWM.c **** *
 874:Generated_Source\PSoC5/PWM.c **** * Summary:
 875:Generated_Source\PSoC5/PWM.c **** *  Reads the period value used by the PWM hardware.
 876:Generated_Source\PSoC5/PWM.c **** *
 877:Generated_Source\PSoC5/PWM.c **** * Parameters:
 878:Generated_Source\PSoC5/PWM.c **** *  None
 879:Generated_Source\PSoC5/PWM.c **** *
 880:Generated_Source\PSoC5/PWM.c **** * Return:
 881:Generated_Source\PSoC5/PWM.c **** *  uint8/16: Period value
 882:Generated_Source\PSoC5/PWM.c **** *
 883:Generated_Source\PSoC5/PWM.c **** *******************************************************************************/
 884:Generated_Source\PSoC5/PWM.c **** uint16 PWM_ReadPeriod(void) 
 885:Generated_Source\PSoC5/PWM.c **** {
 536              		.loc 1 885 0
 537              		.cfi_startproc
 538              		@ args = 0, pretend = 0, frame = 0
 539              		@ frame_needed = 0, uses_anonymous_args = 0
 540              		@ link register save eliminated.
 886:Generated_Source\PSoC5/PWM.c ****     #if(PWM_UsingFixedFunction)
 887:Generated_Source\PSoC5/PWM.c ****         return ((uint16)CY_GET_REG16(PWM_PERIOD_LSB_PTR));
 888:Generated_Source\PSoC5/PWM.c ****     #else
 889:Generated_Source\PSoC5/PWM.c ****         return (CY_GET_REG16(PWM_PERIOD_LSB_PTR));
 541              		.loc 1 889 0
 542 0000 014B     		ldr	r3, .L57
 543 0002 1888     		ldrh	r0, [r3]
 890:Generated_Source\PSoC5/PWM.c ****     #endif /* (PWM_UsingFixedFunction) */
 891:Generated_Source\PSoC5/PWM.c **** }
 544              		.loc 1 891 0
 545 0004 80B2     		uxth	r0, r0
 546 0006 7047     		bx	lr
 547              	.L58:
 548              		.align	2
 549              	.L57:
 550 0008 886A0040 		.word	1073769096
 551              		.cfi_endproc
 552              	.LFE17:
 553              		.size	PWM_ReadPeriod, .-PWM_ReadPeriod
 554              		.global	PWM_initVar
 555              		.bss
 556              		.set	.LANCHOR0,. + 0
 557              		.type	PWM_initVar, %object
 558              		.size	PWM_initVar, 1
 559              	PWM_initVar:
 560 0000 00       		.space	1
 561              		.text
 562              	.Letext0:
 563              		.file 2 "Generated_Source\\PSoC5\\cytypes.h"
 564              		.file 3 "Generated_Source\\PSoC5\\CyLib.h"